ASxxxx Linker V03.00 + NoICE + sdld,  page 1.
Hexadecimal  [32-Bits]

Area                                    Addr        Size        Decimal Bytes (Attributes)
--------------------------------        ----        ----        ------- ----- ------------
.  .ABS.                            00000000    00000000 =           0. bytes (ABS,CON)

      Value  Global                              Global Defined In Module
      -----  --------------------------------   ------------------------
     00000000  .__.ABS.                           
     00000000  l_CABS                          
     00000000  l_DABS                          
     00000000  l__CODE                         
     00000000  s_CABS                          
     00000000  s_DABS                          
     00000000  s__CODE                         
     00000001  l_SSEG                          
     00000001  s_DATA                          
     00000003  l_GSFINAL                       
     00000007  l_INITIALIZED                   
     00000007  l_INITIALIZER                   
     00000030  l_GSINIT                        
     00000064  l_CONST                         
     0000006F  l_HOME                          
     00000262  l_DATA                          
     00000263  s_INITIALIZED                   
     0000026A  s_SSEG                          
     00001FDA  l_CODE                          
     00008000  s_HOME                          
     0000806F  s_GSINIT                        
     0000809F  s_GSFINAL                       
     000080A2  s_CONST                         
     00008106  s_INITIALIZER                   
     0000810D  s_CODE                          

ASxxxx Linker V03.00 + NoICE + sdld,  page 2.
Hexadecimal  [32-Bits]

Area                                    Addr        Size        Decimal Bytes (Attributes)
--------------------------------        ----        ----        ------- ----- ------------
DATA                                00000001    00000262 =         610. bytes (REL,CON)

      Value  Global                              Global Defined In Module
      -----  --------------------------------   ------------------------
     00000001  Fmain$cfg$0_0$0                    main
     0000000E  G$loggerCfg$0_0$0                  main
     0000000E  _loggerCfg                         main
     0000001D  Ldiskio.disk_writep$byteLeft$1_0   diskio
     00000021  G$sysTick$0_0$0                    dly
     00000021  _sysTick                           dly
     00000025  G$led_ticks$0_0$0                  led_matrix
     00000025  _led_ticks                         led_matrix
     00000055  Fleds$ledsState$0_0$0              leds
     00000057  Lleds.UpdateLedState$ledId$1_0$3   leds
     00000058  Lleds.UpdateLedState$ledIdPrev$1   leds
     00000059  G$buffer_rdy$0_0$0                 adc
     00000059  _buffer_rdy                        adc
     0000005A  G$adcBuffer0$0_0$0                 adc
     0000005A  _adcBuffer0                        adc
     0000015A  G$adcBuffer1$0_0$0                 adc
     0000015A  _adcBuffer1                        adc
     0000025A  Fadc$cnter$0_0$0                   adc
     0000025C  Fadc$pCurrBuffer$0_0$0             adc
     0000025E  Fadc$pCurrByte$0_0$0               adc
     00000260  Ladc.NextChannel$cntForChannel$1   adc
     00000261  Fpff$FatFs$0_0$0                   pff

ASxxxx Linker V03.00 + NoICE + sdld,  page 3.
Hexadecimal  [32-Bits]

Area                                    Addr        Size        Decimal Bytes (Attributes)
--------------------------------        ----        ----        ------- ----- ------------
INITIALIZED                         00000263    00000007 =           7. bytes (REL,CON)

      Value  Global                              Global Defined In Module
      -----  --------------------------------   ------------------------
     00000263  Fmain$blkCnt$0_0$0                 main
     00000264  Fmain$fileBlkCnt$0_0$0             main
     00000268  Fmain$fileNoCnt$0_0$0              main
ASxxxx Linker V03.00 + NoICE + sdld,  page 4.
Hexadecimal  [32-Bits]

Area                                    Addr        Size        Decimal Bytes (Attributes)
--------------------------------        ----        ----        ------- ----- ------------
SSEG                                0000026A    00000001 =           1. bytes (REL,CON)

      Value  Global                              Global Defined In Module
      -----  --------------------------------   ------------------------
ASxxxx Linker V03.00 + NoICE + sdld,  page 5.
Hexadecimal  [32-Bits]

Area                                    Addr        Size        Decimal Bytes (Attributes)
--------------------------------        ----        ----        ------- ----- ------------
HOME                                00008000    0000006F =         111. bytes (REL,CON)

      Value  Global                              Global Defined In Module
      -----  --------------------------------   ------------------------
     00008000  A$main$71                          main
     00008004  A$main$72                          main
     00008008  A$main$73                          main
     0000800C  A$main$74                          main
     00008010  A$main$75                          main
     00008014  A$main$76                          main
     00008018  A$main$77                          main
     0000801C  A$main$78                          main
     00008020  A$main$79                          main
     00008024  A$main$80                          main
     00008028  A$main$81                          main
     0000802C  A$main$82                          main
     00008030  A$main$83                          main
     00008034  A$main$84                          main
     00008038  A$main$85                          main
     0000803C  A$main$86                          main
     00008040  A$main$87                          main
     00008044  A$main$88                          main
     00008048  A$main$89                          main
     0000804C  A$main$90                          main
     00008050  A$main$91                          main
     00008054  A$main$92                          main
     00008058  A$main$93                          main
     0000805C  A$main$94                          main
     00008060  A$main$95                          main
     00008064  A$main$96                          main
     00008068  A$main$97                          main
     0000806C  A$main$131                         main

ASxxxx Linker V03.00 + NoICE + sdld,  page 6.
Hexadecimal  [32-Bits]

Area                                    Addr        Size        Decimal Bytes (Attributes)
--------------------------------        ----        ----        ------- ----- ------------
GSINIT                              0000806F    00000030 =          48. bytes (REL,CON)

      Value  Global                              Global Defined In Module
      -----  --------------------------------   ------------------------
     0000806F  A$main$107                         main
     00008072  A$main$108                         main
     00008074  A$main$110                         main
     00008078  A$main$111                         main
     00008079  A$main$112                         main
     0000807B  A$main$114                         main
     0000807E  A$main$115                         main
     00008080  A$main$117                         main
     00008083  A$main$118                         main
     00008086  A$main$119                         main
     00008087  A$main$120                         main
     00008089  A$diskio$57                        diskio
     00008089  C$diskio.c$95$1_0$355              diskio
     0000808C  A$diskio$58                        diskio
     0000808F  A$diskio$59                        diskio
     00008090  A$diskio$60                        diskio
     00008093  A$leds$59                          leds
     00008093  C$leds.c$97$1_0$325                leds
     00008097  A$leds$63                          leds
     00008097  C$leds.c$98$1_0$325                leds
     0000809B  A$adc$69                           adc
     0000809B  C$adc.c$157$2_0$330                adc

ASxxxx Linker V03.00 + NoICE + sdld,  page 7.
Hexadecimal  [32-Bits]

Area                                    Addr        Size        Decimal Bytes (Attributes)
--------------------------------        ----        ----        ------- ----- ------------
GSFINAL                             0000809F    00000003 =           3. bytes (REL,CON)

      Value  Global                              Global Defined In Module
      -----  --------------------------------   ------------------------
     0000809F  A$main$124                         main

ASxxxx Linker V03.00 + NoICE + sdld,  page 8.
Hexadecimal  [32-Bits]

Area                                    Addr        Size        Decimal Bytes (Attributes)
--------------------------------        ----        ----        ------- ----- ------------
CONST                               000080A2    00000064 =         100. bytes (REL,CON)

      Value  Global                              Global Defined In Module
      -----  --------------------------------   ------------------------
     000080A2  Fmain$__str_0$0_0$0                main
     000080A6  G$leds_anode$0_0$0                 leds
     000080A6  _leds_anode                        leds
     000080D6  G$leds_cathode$0_0$0               leds
     000080D6  _leds_cathode                      leds

ASxxxx Linker V03.00 + NoICE + sdld,  page 9.
Hexadecimal  [32-Bits]

Area                                    Addr        Size        Decimal Bytes (Attributes)
--------------------------------        ----        ----        ------- ----- ------------
INITIALIZER                         00008106    00000007 =           7. bytes (REL,CON)

      Value  Global                              Global Defined In Module
      -----  --------------------------------   ------------------------
     00008106  Fmain$__xinit_blkCnt$0_0$0         main
     00008107  Fmain$__xinit_fileBlkCnt$0_0$0     main
     0000810B  Fmain$__xinit_fileNoCnt$0_0$0      main
ASxxxx Linker V03.00 + NoICE + sdld,  page 10.
Hexadecimal  [32-Bits]

Area                                    Addr        Size        Decimal Bytes (Attributes)
--------------------------------        ----        ----        ------- ----- ------------
CODE                                0000810D    00001FDA =        8154. bytes (REL,CON)

      Value  Global                              Global Defined In Module
      -----  --------------------------------   ------------------------
     0000810D  A$main$147                         main
     0000810D  C$main.c$100$0_0$355               main
     0000810D  G$main$0$0                         main
     0000810D  _main                              main
     0000810F  A$main$151                         main
     0000810F  C$main.c$110$1_0$355               main
     00008112  A$main$155                         main
     00008112  C$main.c$111$1_0$355               main
     00008115  A$main$159                         main
     00008115  C$main.c$112$1_0$355               main
     00008118  A$main$163                         main
     00008118  C$main.c$115$1_0$355               main
     00008119  A$main$167                         main
     00008119  C$main.c$117$1_0$355               main
     0000811B  A$main$169                         main
     0000811D  A$main$171                         main
     00008120  A$main$172                         main
     00008121  A$main$176                         main
     00008121  C$main.c$118$1_0$355               main
     00008123  A$main$177                         main
     00008125  A$main$178                         main
     00008126  A$main$179                         main
     00008127  A$main$181                         main
     0000812A  A$main$182                         main
     0000812C  A$main$188                         main
     0000812C  C$main.c$124$1_0$355               main
     0000812D  A$main$189                         main
     00008130  A$main$190                         main
     00008131  A$main$192                         main
     00008134  A$main$193                         main
     00008135  A$main$195                         main
     00008137  A$main$201                         main
     00008137  C$main.c$125$1_0$355               main
     00008139  A$main$202                         main
     0000813B  A$main$204                         main
     0000813E  A$main$205                         main
     0000813F  A$main$207                         main
     00008141  A$main$208                         main
     00008143  A$main$216                         main
     00008143  C$main.c$126$1_0$355               main
     00008144  A$main$217                         main
     00008145  A$main$218                         main
     00008146  A$main$220                         main
     00008148  A$main$221                         main
     0000814A  A$main$223                         main
     0000814C  A$main$224                         main
     0000814E  A$main$226                         main
     00008151  A$main$227                         main
     00008153  A$main$229                         main
     00008155  A$main$230                         main
ASxxxx Linker V03.00 + NoICE + sdld,  page 11.
Hexadecimal  [32-Bits]

Area                                    Addr        Size        Decimal Bytes (Attributes)
--------------------------------        ----        ----        ------- ----- ------------
CODE                                0000810D    00001FDA =        8154. bytes (REL,CON)

      Value  Global                              Global Defined In Module
      -----  --------------------------------   ------------------------
     00008157  A$main$238                         main
     00008157  C$main.c$128$1_0$355               main
     00008159  A$main$239                         main
     0000815B  A$main$241                         main
     0000815D  A$main$242                         main
     0000815F  A$main$244                         main
     00008162  A$main$245                         main
     00008164  A$main$246                         main
     00008165  A$main$250                         main
     00008167  A$main$252                         main
     00008169  A$main$256                         main
     00008169  C$main.c$130$1_0$355               main
     0000816B  A$main$257                         main
     0000816D  A$main$258                         main
     00008170  A$main$264                         main
     00008170  C$main.c$132$2_0$356               main
     00008173  A$main$266                         main
     00008175  A$main$267                         main
     00008178  A$main$268                         main
     0000817A  A$main$270                         main
     0000817E  A$main$271                         main
     00008181  A$main$276                         main
     00008181  C$main.c$133$2_0$356               main
     00008184  A$main$278                         main
     00008187  A$main$282                         main
     00008187  C$main.c$134$2_0$356               main
     00008189  A$main$284                         main
     0000818B  A$main$286                         main
     0000818E  A$main$287                         main
     0000818F  A$main$291                         main
     0000818F  C$main.c$136$2_0$356               main
     00008192  A$main$295                         main
     00008193  A$main$297                         main
     00008196  A$main$298                         main
     00008197  A$main$300                         main
     00008199  A$main$304                         main
     00008199  C$main.c$138$2_0$356               main
     0000819A  A$main$305                         main
     0000819C  A$main$306                         main
     0000819F  A$main$312                         main
     0000819F  C$main.c$141$3_0$357               main
     000081A1  A$main$317                         main
     000081A1  C$main.c$142$3_0$357               main
     000081A3  A$main$319                         main
     000081A6  A$main$326                         main
     000081A6  C$main.c$145$3_0$358               main
     000081A8  A$main$327                         main
     000081AA  A$main$332                         main
     000081AA  C$main.c$146$3_0$358               main
     000081AC  A$main$333                         main
     000081AE  A$main$337                         main
ASxxxx Linker V03.00 + NoICE + sdld,  page 12.
Hexadecimal  [32-Bits]

Area                                    Addr        Size        Decimal Bytes (Attributes)
--------------------------------        ----        ----        ------- ----- ------------
CODE                                0000810D    00001FDA =        8154. bytes (REL,CON)

      Value  Global                              Global Defined In Module
      -----  --------------------------------   ------------------------
     000081AE  C$main.c$147$3_0$358               main
     000081B0  A$main$339                         main
     000081B2  A$main$341                         main
     000081B5  A$main$342                         main
     000081B6  A$main$348                         main
     000081B6  C$main.c$150$2_0$356               main
     000081B7  A$main$352                         main
     000081B7  C$main.c$151$2_0$356               main
     000081BA  A$main$356                         main
     000081BA  C$main.c$153$2_0$356               main
     000081BB  A$main$358                         main
     000081BE  A$main$365                         main
     000081BE  C$main.c$156$2_0$359               main
     000081C0  A$main$366                         main
     000081C2  A$main$371                         main
     000081C2  C$main.c$157$2_0$359               main
     000081C4  A$main$372                         main
     000081C6  A$main$378                         main
     000081C6  C$main.c$159$1_0$355               main
     000081C8  A$main$380                         main
     000081CA  A$main$382                         main
     000081CD  A$main$383                         main
     000081CE  A$main$392                         main
     000081CE  C$main.c$161$2_0$360               main
     000081D1  A$main$393                         main
     000081D3  A$main$395                         main
     000081D5  A$main$396                         main
     000081D7  A$main$402                         main
     000081D7  C$main.c$166$2_0$360               main
     000081D9  A$main$405                         main
     000081DB  A$main$406                         main
     000081DD  A$main$407                         main
     000081E0  A$main$411                         main
     000081E1  A$main$412                         main
     000081E2  A$main$413                         main
     000081E3  A$main$414                         main
     000081E6  A$main$415                         main
     000081F5  A$main$431                         main
     000081F5  C$main.c$167$3_0$361               main
     000081F5  C$main.c$170$3_0$361               main
     000081F8  A$main$432                         main
     000081FA  A$main$433                         main
     000081FC  A$main$434                         main
     000081FF  A$main$436                         main
     00008202  A$main$442                         main
     00008202  C$main.c$173$4_0$362               main
     00008204  A$main$443                         main
     00008206  A$main$447                         main
     00008206  C$main.c$174$4_0$362               main
     00008207  A$main$448                         main
     0000820A  A$main$449                         main
ASxxxx Linker V03.00 + NoICE + sdld,  page 13.
Hexadecimal  [32-Bits]

Area                                    Addr        Size        Decimal Bytes (Attributes)
--------------------------------        ----        ----        ------- ----- ------------
CODE                                0000810D    00001FDA =        8154. bytes (REL,CON)

      Value  Global                              Global Defined In Module
      -----  --------------------------------   ------------------------
     0000820B  A$main$451                         main
     0000820C  A$main$452                         main
     0000820E  A$main$453                         main
     0000820F  A$main$455                         main
     00008212  A$main$461                         main
     00008212  C$main.c$175$3_0$361               main
     00008215  A$main$462                         main
     00008216  A$main$463                         main
     00008218  A$main$464                         main
     0000821B  A$main$466                         main
     0000821E  A$main$472                         main
     0000821E  C$main.c$177$4_0$363               main
     00008220  A$main$473                         main
     00008222  A$main$475                         main
     00008225  A$main$481                         main
     00008225  C$main.c$178$3_0$361               main
     00008228  A$main$482                         main
     0000822A  A$main$483                         main
     0000822C  A$main$484                         main
     0000822F  A$main$486                         main
     00008232  A$main$492                         main
     00008232  C$main.c$180$4_0$364               main
     00008234  A$main$493                         main
     00008236  A$main$497                         main
     00008236  C$main.c$182$3_0$361               main
     00008239  A$main$506                         main
     00008239  C$main.c$184$3_0$361               main
     00008239  C$main.c$186$3_0$361               main
     0000823A  A$main$507                         main
     0000823D  A$main$508                         main
     0000823E  A$main$510                         main
     00008241  A$main$511                         main
     00008242  A$main$515                         main
     00008242  C$main.c$187$3_0$361               main
     00008245  A$main$523                         main
     00008245  C$main.c$188$3_0$361               main
     00008245  C$main.c$189$3_0$361               main
     00008248  A$main$524                         main
     0000824A  A$main$525                         main
     0000824D  A$main$526                         main
     0000824F  A$main$528                         main
     00008253  A$main$529                         main
     00008256  A$main$533                         main
     00008256  C$main.c$191$3_0$361               main
     00008259  A$main$534                         main
     0000825A  A$main$536                         main
     0000825D  A$main$538                         main
     00008260  A$main$539                         main
     00008262  A$main$540                         main
     00008265  A$main$546                         main
     00008265  C$main.c$193$4_0$365               main
ASxxxx Linker V03.00 + NoICE + sdld,  page 14.
Hexadecimal  [32-Bits]

Area                                    Addr        Size        Decimal Bytes (Attributes)
--------------------------------        ----        ----        ------- ----- ------------
CODE                                0000810D    00001FDA =        8154. bytes (REL,CON)

      Value  Global                              Global Defined In Module
      -----  --------------------------------   ------------------------
     00008267  A$main$548                         main
     00008268  A$main$550                         main
     0000826B  A$main$551                         main
     0000826C  A$main$556                         main
     0000826C  C$main.c$195$4_0$365               main
     0000826E  A$main$558                         main
     0000826F  A$main$560                         main
     00008272  A$main$561                         main
     00008273  A$main$566                         main
     00008273  C$main.c$196$4_0$365               main
     00008274  A$main$567                         main
     00008276  A$main$568                         main
     00008279  A$main$573                         main
     00008279  C$main.c$197$5_0$366               main
     0000827B  A$main$574                         main
     0000827D  A$main$576                         main
     00008280  A$main$582                         main
     00008280  C$main.c$200$5_0$367               main
     00008282  A$main$584                         main
     00008285  A$main$590                         main
     00008285  C$main.c$206$4_0$368               main
     00008287  A$main$591                         main
     00008289  A$main$595                         main
     00008289  C$main.c$209$3_0$361               main
     0000828C  A$main$603                         main
     0000828C  C$main.c$211$3_0$361               main
     0000828C  C$main.c$212$3_0$361               main
     0000828E  A$main$605                         main
     00008290  A$main$607                         main
     00008293  A$main$608                         main
     00008294  A$main$614                         main
     00008294  C$main.c$213$3_0$361               main
     00008297  A$main$622                         main
     00008297  C$main.c$214$3_0$361               main
     00008297  C$main.c$215$3_0$361               main
     00008299  A$main$624                         main
     0000829B  A$main$626                         main
     0000829E  A$main$627                         main
     0000829F  A$main$633                         main
     0000829F  C$main.c$216$3_0$361               main
     000082A2  A$main$641                         main
     000082A2  C$main.c$221$1_0$355               main
     000082A4  A$main$644                         main
     000082A4  C$main.c$223$1_0$355               main
     000082A4  XG$main$0$0                        main
     000082A5  A$main$655                         main
     000082A5  C$main.c$236$1_0$370               main
     000082A5  Fmain$Wr2SD$0$0                    main
     000082A7  A$main$659                         main
     000082A9  A$main$661                         main
     000082AA  A$main$663                         main
ASxxxx Linker V03.00 + NoICE + sdld,  page 15.
Hexadecimal  [32-Bits]

Area                                    Addr        Size        Decimal Bytes (Attributes)
--------------------------------        ----        ----        ------- ----- ------------
CODE                                0000810D    00001FDA =        8154. bytes (REL,CON)

      Value  Global                              Global Defined In Module
      -----  --------------------------------   ------------------------
     000082AB  A$main$664                         main
     000082AD  A$main$665                         main
     000082B0  A$main$667                         main
     000082B3  A$main$673                         main
     000082B3  C$main.c$244$2_0$371               main
     000082B7  A$main$678                         main
     000082B8  A$main$680                         main
     000082BB  A$main$688                         main
     000082BB  C$main.c$246$2_0$372               main
     000082BF  A$main$690                         main
     000082C1  A$main$691                         main
     000082C2  A$main$699                         main
     000082C2  C$main.c$248$1_0$370               main
     000082C4  A$main$700                         main
     000082C5  A$main$701                         main
     000082C6  A$main$702                         main
     000082C7  A$main$703                         main
     000082C9  A$main$705                         main
     000082CB  A$main$706                         main
     000082CC  A$main$707                         main
     000082CE  A$main$709                         main
     000082CF  A$main$711                         main
     000082D0  A$main$713                         main
     000082D3  A$main$714                         main
     000082D6  A$main$718                         main
     000082D6  C$main.c$252$1_0$370               main
     000082D7  A$main$719                         main
     000082D8  A$main$725                         main
     000082D9  A$main$727                         main
     000082DB  A$main$728                         main
     000082DD  A$main$730                         main
     000082DF  A$main$732                         main
     000082E2  A$main$733                         main
     000082E4  A$main$737                         main
     000082E4  C$main.c$243$1_0$370               main
     000082E6  A$main$738                         main
     000082E8  A$main$742                         main
     000082E8  C$main.c$259$1_0$370               main
     000082EA  A$main$743                         main
     000082EB  A$main$744                         main
     000082ED  A$main$748                         main
     000082ED  C$main.c$256$1_0$370               main
     000082EE  A$main$749                         main
     000082F0  A$main$750                         main
     000082F3  A$main$755                         main
     000082F3  C$main.c$259$2_0$373               main
     000082F5  A$main$756                         main
     000082F7  A$main$757                         main
     000082F8  A$main$761                         main
     000082F8  C$main.c$260$2_0$373               main
     000082FA  A$main$762                         main
ASxxxx Linker V03.00 + NoICE + sdld,  page 16.
Hexadecimal  [32-Bits]

Area                                    Addr        Size        Decimal Bytes (Attributes)
--------------------------------        ----        ----        ------- ----- ------------
CODE                                0000810D    00001FDA =        8154. bytes (REL,CON)

      Value  Global                              Global Defined In Module
      -----  --------------------------------   ------------------------
     000082FC  A$main$763                         main
     000082FD  A$main$767                         main
     000082FD  C$main.c$261$2_0$373               main
     00008300  A$main$773                         main
     00008300  C$main.c$264$1_0$370               main
     00008304  A$main$775                         main
     00008307  A$main$776                         main
     00008309  A$main$777                         main
     0000830B  A$main$778                         main
     0000830E  A$main$780                         main
     00008311  A$main$786                         main
     00008311  C$main.c$266$2_0$374               main
     00008315  A$main$792                         main
     00008315  C$main.c$267$2_0$374               main
     00008316  A$main$793                         main
     00008317  A$main$794                         main
     00008318  A$main$796                         main
     00008319  A$main$797                         main
     0000831A  A$main$799                         main
     0000831B  A$main$800                         main
     0000831C  A$main$802                         main
     0000831F  A$main$803                         main
     00008321  A$main$807                         main
     00008321  C$main.c$270$2_0$374               main
     00008322  A$main$808                         main
     00008324  A$main$809                         main
     00008327  A$main$814                         main
     00008327  C$main.c$272$3_0$375               main
     00008329  A$main$815                         main
     0000832B  A$main$816                         main
     0000832C  A$main$820                         main
     0000832C  C$main.c$273$3_0$375               main
     0000832E  A$main$821                         main
     00008330  A$main$822                         main
     00008331  A$main$826                         main
     00008331  C$main.c$274$3_0$375               main
     00008334  A$main$832                         main
     00008334  C$main.c$277$2_0$374               main
     00008337  A$main$833                         main
     0000833A  A$main$834                         main
     0000833E  A$main$835                         main
     00008340  A$main$836                         main
     00008342  A$main$839                         main
     00008345  A$main$840                         main
     00008349  A$main$842                         main
     0000834C  A$main$843                         main
     0000834E  A$main$844                         main
     00008351  A$main$845                         main
     00008353  A$main$847                         main
     00008356  A$main$852                         main
     00008356  C$main.c$280$3_0$376               main
ASxxxx Linker V03.00 + NoICE + sdld,  page 17.
Hexadecimal  [32-Bits]

Area                                    Addr        Size        Decimal Bytes (Attributes)
--------------------------------        ----        ----        ------- ----- ------------
CODE                                0000810D    00001FDA =        8154. bytes (REL,CON)

      Value  Global                              Global Defined In Module
      -----  --------------------------------   ------------------------
     00008358  A$main$853                         main
     0000835A  A$main$854                         main
     0000835B  A$main$858                         main
     0000835B  C$main.c$281$3_0$376               main
     0000835E  A$main$864                         main
     0000835E  C$main.c$286$1_0$370               main
     00008360  A$main$865                         main
     00008361  A$main$871                         main
     00008363  A$main$874                         main
     00008363  C$main.c$287$1_0$370               main
     00008363  XFmain$Wr2SD$0$0                   main
     00008364  A$main$885                         main
     00008364  C$main.c$300$1_0$378               main
     00008364  Fmain$GetNxtFileName$0$0           main
     00008366  A$main$889                         main
     00008366  C$main.c$301$2_0$378               main
     00008367  A$main$893                         main
     00008367  C$main.c$303$1_0$378               main
     00008369  A$main$894                         main
     0000836D  A$main$895                         main
     0000836F  A$main$897                         main
     00008371  A$main$898                         main
     00008373  A$main$899                         main
     00008374  A$main$901                         main
     00008375  A$main$902                         main
     00008377  A$main$903                         main
     00008379  A$main$904                         main
     0000837C  A$main$906                         main
     0000837F  A$main$912                         main
     0000837F  C$main.c$304$2_0$379               main
     00008381  A$main$913                         main
     00008382  A$main$919                         main
     00008382  C$main.c$306$1_0$378               main
     00008384  A$main$920                         main
     00008386  A$main$921                         main
     00008388  A$main$922                         main
     0000838A  A$main$924                         main
     0000838C  A$main$925                         main
     0000838E  A$main$927                         main
     00008390  A$main$928                         main
     00008392  A$main$929                         main
     00008395  A$main$931                         main
     00008398  A$main$939                         main
     00008398  C$main.c$307$2_0$380               main
     0000839B  A$main$945                         main
     0000839B  C$main.c$309$1_0$378               main
     0000839D  A$main$946                         main
     0000839F  A$main$947                         main
     000083A1  A$main$949                         main
     000083A3  A$main$950                         main
     000083A5  A$main$952                         main
ASxxxx Linker V03.00 + NoICE + sdld,  page 18.
Hexadecimal  [32-Bits]

Area                                    Addr        Size        Decimal Bytes (Attributes)
--------------------------------        ----        ----        ------- ----- ------------
CODE                                0000810D    00001FDA =        8154. bytes (REL,CON)

      Value  Global                              Global Defined In Module
      -----  --------------------------------   ------------------------
     000083A7  A$main$953                         main
     000083A9  A$main$954                         main
     000083AC  A$main$956                         main
     000083AF  A$main$964                         main
     000083AF  C$main.c$310$2_0$381               main
     000083B2  A$main$970                         main
     000083B2  C$main.c$312$1_0$378               main
     000083B4  A$main$971                         main
     000083B6  A$main$973                         main
     000083B8  A$main$974                         main
     000083BA  A$main$976                         main
     000083BC  A$main$977                         main
     000083BE  A$main$978                         main
     000083C1  A$main$980                         main
     000083C4  A$main$988                         main
     000083C4  C$main.c$313$2_0$382               main
     000083C7  A$main$994                         main
     000083C7  C$main.c$316$1_0$378               main
     000083C8  A$main$995                         main
     000083C9  A$main$996                         main
     000083CB  A$main$997                         main
     000083CE  A$main$1001                        main
     000083CF  A$main$1002                        main
     000083D1  A$main$1003                        main
     000083D3  A$main$1004                        main
     000083D6  A$main$1008                        main
     000083D7  A$main$1009                        main
     000083D9  A$main$1010                        main
     000083DB  A$main$1011                        main
     000083DE  A$main$1015                        main
     000083DF  A$main$1016                        main
     000083E1  A$main$1017                        main
     000083E3  A$main$1018                        main
     000083E6  A$main$1022                        main
     000083E9  A$main$1028                        main
     000083E9  C$main.c$317$2_0$383               main
     000083EB  A$main$1029                        main
     000083ED  A$main$1030                        main
     000083EE  A$main$1034                        main
     000083EE  C$main.c$318$2_0$383               main
     000083F0  A$main$1035                        main
     000083F1  A$main$1037                        main
     000083F2  A$main$1039                        main
     000083F4  A$main$1040                        main
     000083F5  A$main$1042                        main
     000083F8  A$main$1048                        main
     000083F8  C$main.c$319$2_0$383               main
     000083FA  A$main$1049                        main
     000083FC  A$main$1050                        main
     000083FD  A$main$1054                        main
     000083FD  C$main.c$320$2_0$383               main
ASxxxx Linker V03.00 + NoICE + sdld,  page 19.
Hexadecimal  [32-Bits]

Area                                    Addr        Size        Decimal Bytes (Attributes)
--------------------------------        ----        ----        ------- ----- ------------
CODE                                0000810D    00001FDA =        8154. bytes (REL,CON)

      Value  Global                              Global Defined In Module
      -----  --------------------------------   ------------------------
     000083FF  A$main$1055                        main
     00008401  A$main$1056                        main
     00008402  A$main$1060                        main
     00008402  C$main.c$321$2_0$383               main
     00008404  A$main$1061                        main
     00008405  A$main$1063                        main
     00008406  A$main$1065                        main
     00008408  A$main$1066                        main
     00008409  A$main$1068                        main
     0000840C  A$main$1074                        main
     0000840C  C$main.c$322$2_0$383               main
     0000840E  A$main$1075                        main
     00008410  A$main$1076                        main
     00008411  A$main$1080                        main
     00008411  C$main.c$323$2_0$383               main
     00008413  A$main$1081                        main
     00008415  A$main$1082                        main
     00008416  A$main$1086                        main
     00008416  C$main.c$324$2_0$383               main
     00008418  A$main$1087                        main
     0000841A  A$main$1088                        main
     0000841B  A$main$1092                        main
     0000841B  C$main.c$325$2_0$383               main
     0000841D  A$main$1093                        main
     0000841E  A$main$1095                        main
     0000841F  A$main$1097                        main
     00008421  A$main$1098                        main
     00008422  A$main$1100                        main
     00008425  A$main$1106                        main
     00008425  C$main.c$326$2_0$383               main
     00008427  A$main$1107                        main
     00008429  A$main$1108                        main
     0000842A  A$main$1112                        main
     0000842A  C$main.c$327$2_0$383               main
     0000842C  A$main$1113                        main
     0000842E  A$main$1114                        main
     0000842F  A$main$1118                        main
     0000842F  C$main.c$328$2_0$383               main
     00008431  A$main$1119                        main
     00008433  A$main$1120                        main
     00008434  A$main$1124                        main
     00008434  C$main.c$329$2_0$383               main
     00008436  A$main$1125                        main
     00008438  A$main$1126                        main
     00008439  A$main$1128                        main
     0000843C  A$main$1134                        main
     0000843C  C$main.c$330$2_0$383               main
     0000843D  A$main$1135                        main
     0000843E  A$main$1137                        main
     00008440  A$main$1138                        main
     00008441  A$main$1146                        main
ASxxxx Linker V03.00 + NoICE + sdld,  page 20.
Hexadecimal  [32-Bits]

Area                                    Addr        Size        Decimal Bytes (Attributes)
--------------------------------        ----        ----        ------- ----- ------------
CODE                                0000810D    00001FDA =        8154. bytes (REL,CON)

      Value  Global                              Global Defined In Module
      -----  --------------------------------   ------------------------
     00008441  C$main.c$331$1_0$378               main
     00008443  A$main$1149                        main
     00008443  C$main.c$332$1_0$378               main
     00008443  XFmain$GetNxtFileName$0$0          main
     00008444  A$main$1160                        main
     00008444  C$main.c$345$1_0$385               main
     00008444  Fmain$ConvertFileName$0$0          main
     00008446  A$main$1165                        main
     00008446  C$main.c$348$1_0$385               main
     00008448  A$main$1166                        main
     0000844A  A$main$1168                        main
     0000844C  A$main$1169                        main
     00008450  A$main$1170                        main
     00008451  A$main$1177                        main
     00008451  C$main.c$349$1_0$385               main
     00008453  A$main$1178                        main
     00008455  A$main$1181                        main
     00008456  A$main$1185                        main
     00008458  A$main$1187                        main
     0000845A  A$main$1188                        main
     0000845C  A$main$1194                        main
     0000845C  C$main.c$350$1_0$385               main
     0000845D  A$main$1196                        main
     0000845F  A$main$1197                        main
     00008461  A$main$1199                        main
     00008464  A$main$1200                        main
     00008466  A$main$1202                        main
     00008467  A$main$1203                        main
     0000846A  A$main$1207                        main
     0000846C  A$main$1212                        main
     0000846C  C$main.c$351$1_0$385               main
     0000846E  A$main$1213                        main
     00008470  A$main$1215                        main
     00008472  A$main$1216                        main
     00008476  A$main$1217                        main
     00008477  A$main$1224                        main
     00008477  C$main.c$352$1_0$385               main
     00008479  A$main$1225                        main
     0000847B  A$main$1228                        main
     0000847C  A$main$1232                        main
     0000847E  A$main$1234                        main
     00008480  A$main$1240                        main
     00008480  C$main.c$353$1_0$385               main
     00008481  A$main$1242                        main
     00008483  A$main$1243                        main
     00008485  A$main$1245                        main
     00008488  A$main$1246                        main
     0000848A  A$main$1248                        main
     0000848B  A$main$1249                        main
     0000848E  A$main$1253                        main
     00008490  A$main$1258                        main
ASxxxx Linker V03.00 + NoICE + sdld,  page 21.
Hexadecimal  [32-Bits]

Area                                    Addr        Size        Decimal Bytes (Attributes)
--------------------------------        ----        ----        ------- ----- ------------
CODE                                0000810D    00001FDA =        8154. bytes (REL,CON)

      Value  Global                              Global Defined In Module
      -----  --------------------------------   ------------------------
     00008490  C$main.c$354$1_0$385               main
     00008492  A$main$1259                        main
     00008494  A$main$1261                        main
     00008496  A$main$1262                        main
     0000849A  A$main$1263                        main
     0000849B  A$main$1270                        main
     0000849B  C$main.c$355$1_0$385               main
     0000849D  A$main$1271                        main
     000084A1  A$main$1274                        main
     000084A2  A$main$1278                        main
     000084A4  A$main$1280                        main
     000084A6  A$main$1287                        main
     000084A6  C$main.c$356$1_0$385               main
     000084A7  A$main$1288                        main
     000084A8  A$main$1289                        main
     000084A9  A$main$1290                        main
     000084AC  A$main$1291                        main
     000084AD  A$main$1292                        main
     000084AF  A$main$1294                        main
     000084B0  A$main$1295                        main
     000084B3  A$main$1299                        main
     000084B5  A$main$1303                        main
     000084B5  C$main.c$357$1_0$385               main
     000084B7  A$main$1304                        main
     000084BA  A$main$1307                        main
     000084BC  A$main$1311                        main
     000084BE  A$main$1313                        main
     000084BF  A$main$1317                        main
     000084BF  C$main.c$358$1_0$385               main
     000084C1  A$main$1318                        main
     000084C4  A$main$1320                        main
     000084C5  A$main$1326                        main
     000084C7  A$main$1329                        main
     000084C7  C$main.c$359$1_0$385               main
     000084C7  XFmain$ConvertFileName$0$0         main
     000084C8  A$main$1340                        main
     000084C8  C$main.c$374$1_0$387               main
     000084C8  Fmain$GetCfg$0$0                   main
     000084CA  A$main$1344                        main
     000084CA  C$main.c$377$1_0$387               main
     000084CC  A$main$1345                        main
     000084CD  A$main$1347                        main
     000084D0  A$main$1348                        main
     000084D1  A$main$1349                        main
     000084D3  A$main$1351                        main
     000084D5  A$main$1352                        main
     000084D7  A$main$1353                        main
     000084DA  A$main$1356                        main
     000084DB  A$main$1357                        main
     000084DC  A$main$1358                        main
     000084DF  A$main$1364                        main
ASxxxx Linker V03.00 + NoICE + sdld,  page 22.
Hexadecimal  [32-Bits]

Area                                    Addr        Size        Decimal Bytes (Attributes)
--------------------------------        ----        ----        ------- ----- ------------
CODE                                0000810D    00001FDA =        8154. bytes (REL,CON)

      Value  Global                              Global Defined In Module
      -----  --------------------------------   ------------------------
     000084DF  C$main.c$380$1_0$387               main
     000084E1  A$main$1365                        main
     000084E3  A$main$1367                        main
     000084E5  A$main$1368                        main
     000084E7  A$main$1370                        main
     000084E9  A$main$1371                        main
     000084EA  A$main$1374                        main
     000084EB  A$main$1375                        main
     000084EC  A$main$1377                        main
     000084EE  A$main$1379                        main
     000084F1  A$main$1382                        main
     000084F3  A$main$1383                        main
     000084F4  A$main$1385                        main
     000084F5  A$main$1388                        main
     000084F7  A$main$1390                        main
     000084F9  A$main$1391                        main
     000084FC  A$main$1393                        main
     000084FE  A$main$1394                        main
     000084FF  A$main$1398                        main
     000084FF  C$main.c$382$1_0$387               main
     00008501  A$main$1400                        main
     00008503  A$main$1403                        main
     00008505  A$main$1404                        main
     00008507  A$main$1406                        main
     00008509  A$main$1408                        main
     0000850B  A$main$1411                        main
     0000850C  A$main$1413                        main
     0000850D  A$main$1414                        main
     0000850E  A$main$1417                        main
     00008510  A$main$1419                        main
     00008511  A$main$1420                        main
     00008514  A$main$1425                        main
     00008514  C$main.c$384$1_0$387               main
     00008516  A$main$1426                        main
     0000851A  A$main$1428                        main
     0000851C  A$main$1430                        main
     0000851D  A$main$1432                        main
     00008520  A$main$1433                        main
     00008522  A$main$1437                        main
     00008522  C$main.c$385$1_0$387               main
     00008524  A$main$1438                        main
     00008528  A$main$1440                        main
     0000852A  A$main$1442                        main
     0000852C  A$main$1445                        main
     0000852E  A$main$1446                        main
     00008530  A$main$1448                        main
     00008532  A$main$1450                        main
     00008534  A$main$1453                        main
     00008535  A$main$1455                        main
     00008537  A$main$1456                        main
     00008539  A$main$1459                        main
ASxxxx Linker V03.00 + NoICE + sdld,  page 23.
Hexadecimal  [32-Bits]

Area                                    Addr        Size        Decimal Bytes (Attributes)
--------------------------------        ----        ----        ------- ----- ------------
CODE                                0000810D    00001FDA =        8154. bytes (REL,CON)

      Value  Global                              Global Defined In Module
      -----  --------------------------------   ------------------------
     0000853B  A$main$1461                        main
     0000853E  A$main$1463                        main
     00008540  A$main$1467                        main
     00008540  C$main.c$386$1_0$387               main
     00008542  A$main$1468                        main
     00008545  A$main$1469                        main
     00008547  A$main$1471                        main
     00008549  A$main$1473                        main
     0000854B  A$main$1474                        main
     0000854D  A$main$1476                        main
     0000854F  A$main$1478                        main
     00008551  A$main$1481                        main
     00008553  A$main$1482                        main
     00008554  A$main$1484                        main
     00008555  A$main$1485                        main
     00008557  A$main$1486                        main
     00008559  A$main$1489                        main
     0000855B  A$main$1490                        main
     0000855D  A$main$1491                        main
     0000855F  A$main$1493                        main
     00008560  A$main$1494                        main
     00008562  A$main$1495                        main
     00008564  A$main$1496                        main
     00008566  A$main$1497                        main
     00008567  A$main$1498                        main
     00008569  A$main$1499                        main
     0000856B  A$main$1500                        main
     0000856C  A$main$1501                        main
     0000856E  A$main$1502                        main
     00008570  A$main$1503                        main
     00008571  A$main$1504                        main
     00008573  A$main$1505                        main
     00008575  A$main$1507                        main
     00008577  A$main$1509                        main
     00008579  A$main$1512                        main
     0000857A  A$main$1513                        main
     0000857C  A$main$1515                        main
     0000857E  A$main$1516                        main
     00008580  A$main$1518                        main
     00008583  A$main$1519                        main
     00008585  A$main$1520                        main
     00008587  A$main$1521                        main
     00008588  A$main$1522                        main
     0000858A  A$main$1523                        main
     0000858C  A$main$1525                        main
     0000858E  A$main$1527                        main
     00008590  A$main$1530                        main
     00008591  A$main$1531                        main
     00008593  A$main$1533                        main
     00008595  A$main$1534                        main
     00008596  A$main$1536                        main
ASxxxx Linker V03.00 + NoICE + sdld,  page 24.
Hexadecimal  [32-Bits]

Area                                    Addr        Size        Decimal Bytes (Attributes)
--------------------------------        ----        ----        ------- ----- ------------
CODE                                0000810D    00001FDA =        8154. bytes (REL,CON)

      Value  Global                              Global Defined In Module
      -----  --------------------------------   ------------------------
     00008597  A$main$1537                        main
     00008599  A$main$1538                        main
     0000859B  A$main$1539                        main
     0000859D  A$main$1540                        main
     0000859F  A$main$1541                        main
     000085A0  A$main$1542                        main
     000085A2  A$main$1543                        main
     000085A3  A$main$1544                        main
     000085A5  A$main$1545                        main
     000085A6  A$main$1546                        main
     000085A8  A$main$1547                        main
     000085AA  A$main$1548                        main
     000085AB  A$main$1549                        main
     000085AD  A$main$1550                        main
     000085AF  A$main$1552                        main
     000085B1  A$main$1553                        main
     000085B3  A$main$1554                        main
     000085B5  A$main$1555                        main
     000085B6  A$main$1559                        main
     000085B6  C$main.c$390$1_0$387               main
     000085B8  A$main$1560                        main
     000085BB  A$main$1562                        main
     000085BD  A$main$1564                        main
     000085C0  A$main$1566                        main
     000085C1  A$main$1570                        main
     000085C3  A$main$1572                        main
     000085C5  A$main$1576                        main
     000085C5  C$main.c$393$1_0$387               main
     000085C7  A$main$1577                        main
     000085CA  A$main$1581                        main
     000085CA  C$main.c$391$1_0$387               main
     000085CB  A$main$1582                        main
     000085CD  A$main$1583                        main
     000085D0  A$main$1588                        main
     000085D0  C$main.c$393$2_0$388               main
     000085D1  A$main$1590                        main
     000085D4  A$main$1596                        main
     000085D4  C$main.c$395$2_0$389               main
     000085D6  A$main$1597                        main
     000085D7  A$main$1603                        main
     000085D7  C$main.c$398$1_0$387               main
     000085D8  A$main$1609                        main
     000085DA  A$main$1612                        main
     000085DA  C$main.c$399$1_0$387               main
     000085DA  XFmain$GetCfg$0$0                  main
     000085DB  A$main$1623                        main
     000085DB  C$main.c$413$1_0$391               main
     000085DB  Fmain$IsValidCfgBuf$0$0            main
     000085DC  A$main$1627                        main
     000085DC  C$main.c$414$2_0$391               main
     000085DE  A$main$1631                        main
ASxxxx Linker V03.00 + NoICE + sdld,  page 25.
Hexadecimal  [32-Bits]

Area                                    Addr        Size        Decimal Bytes (Attributes)
--------------------------------        ----        ----        ------- ----- ------------
CODE                                0000810D    00001FDA =        8154. bytes (REL,CON)

      Value  Global                              Global Defined In Module
      -----  --------------------------------   ------------------------
     000085DE  C$main.c$415$2_0$391               main
     000085DF  A$main$1641                        main
     000085E2  A$main$1642                        main
     000085E4  A$main$1643                        main
     000085E7  A$main$1649                        main
     000085E7  C$main.c$417$3_0$393               main
     000085E9  A$main$1650                        main
     000085EC  A$main$1652                        main
     000085EE  A$main$1654                        main
     000085F0  A$main$1655                        main
     000085F2  A$main$1659                        main
     000085F2  C$main.c$416$2_0$392               main
     000085F3  A$main$1661                        main
     000085F6  A$main$1667                        main
     000085F6  C$main.c$419$1_0$391               main
     000085F8  A$main$1669                        main
     000085FA  A$main$1671                        main
     000085FC  A$main$1672                        main
     000085FE  A$main$1673                        main
     00008601  A$main$1675                        main
     00008604  A$main$1681                        main
     00008604  C$main.c$420$1_0$391               main
     00008606  A$main$1682                        main
     00008609  A$main$1688                        main
     00008609  C$main.c$422$1_0$391               main
     0000860A  A$main$1694                        main
     0000860C  A$main$1697                        main
     0000860C  C$main.c$423$1_0$391               main
     0000860C  XFmain$IsValidCfgBuf$0$0           main
     0000860D  A$main$1711                        main
     0000860D  C$main.c$432$1_0$395               main
     0000860D  C$main.c$435$1_0$395               main
     0000860D  Fmain$clkInit$0$0                  main
     00008611  A$main$1715                        main
     00008611  C$main.c$443$1_0$395               main
     00008614  A$main$1717                        main
     00008616  A$main$1719                        main
     00008619  A$main$1723                        main
     00008619  C$main.c$444$1_0$395               main
     0000861C  A$main$1725                        main
     0000861E  A$main$1727                        main
     00008621  A$main$1735                        main
     00008621  C$main.c$445$1_0$395               main
     00008621  XFmain$clkInit$0$0                 main
     00008622  A$main$1751                        main
     00008622  C$main.c$460$1_0$397               main
     00008622  C$main.c$466$1_0$397               main
     00008622  G$assert_failed$0$0                main
     00008622  _assert_failed                     main
     00008625  A$main$1759                        main
     00008625  C$main.c$469$1_0$397               main
ASxxxx Linker V03.00 + NoICE + sdld,  page 26.
Hexadecimal  [32-Bits]

Area                                    Addr        Size        Decimal Bytes (Attributes)
--------------------------------        ----        ----        ------- ----- ------------
CODE                                0000810D    00001FDA =        8154. bytes (REL,CON)

      Value  Global                              Global Defined In Module
      -----  --------------------------------   ------------------------
     00008625  XG$assert_failed$0$0               main
     00008626  A$diskio$83                        diskio
     00008626  C$diskio.c$13$0_0$341              diskio
     00008626  C$diskio.c$16$1_0$341              diskio
     00008626  G$disk_initialize$0$0              diskio
     00008626  _disk_initialize                   diskio
     00008629  A$diskio$85                        diskio
     0000862A  A$diskio$86                        diskio
     0000862C  A$diskio$87                        diskio
     0000862F  A$diskio$92                        diskio
     0000862F  C$diskio.c$17$1_0$341              diskio
     00008631  A$diskio$93                        diskio
     00008634  A$diskio$99                        diskio
     00008634  C$diskio.c$18$1_0$341              diskio
     00008637  A$diskio$101                       diskio
     00008638  A$diskio$102                       diskio
     0000863A  A$diskio$103                       diskio
     0000863D  A$diskio$105                       diskio
     00008640  A$diskio$111                       diskio
     00008640  C$diskio.c$19$2_0$342              diskio
     00008642  A$diskio$112                       diskio
     00008645  A$diskio$118                       diskio
     00008645  C$diskio.c$21$2_0$343              diskio
     00008646  A$diskio$126                       diskio
     00008646  C$diskio.c$23$1_0$341              diskio
     00008646  XG$disk_initialize$0$0             diskio
     00008647  A$diskio$137                       diskio
     00008647  C$diskio.c$31$1_0$345              diskio
     00008647  G$disk_readp$0$0                   diskio
     00008647  _disk_readp                        diskio
     00008649  A$diskio$141                       diskio
     00008649  C$diskio.c$38$2_0$345              diskio
     0000864B  A$diskio$142                       diskio
     0000864D  A$diskio$146                       diskio
     0000864D  C$diskio.c$41$1_0$345              diskio
     00008650  A$diskio$148                       diskio
     00008652  A$diskio$150                       diskio
     00008655  A$diskio$154                       diskio
     00008655  C$diskio.c$44$1_0$345              diskio
     00008657  A$diskio$156                       diskio
     00008659  A$diskio$157                       diskio
     0000865A  A$diskio$158                       diskio
     0000865C  A$diskio$159                       diskio
     0000865D  A$diskio$161                       diskio
     0000865F  A$diskio$163                       diskio
     00008662  A$diskio$164                       diskio
     00008664  A$diskio$168                       diskio
     00008664  C$diskio.c$47$1_0$345              diskio
     00008666  A$diskio$170                       diskio
     00008669  A$diskio$171                       diskio
     0000866B  A$diskio$172                       diskio
ASxxxx Linker V03.00 + NoICE + sdld,  page 27.
Hexadecimal  [32-Bits]

Area                                    Addr        Size        Decimal Bytes (Attributes)
--------------------------------        ----        ----        ------- ----- ------------
CODE                                0000810D    00001FDA =        8154. bytes (REL,CON)

      Value  Global                              Global Defined In Module
      -----  --------------------------------   ------------------------
     0000866D  A$diskio$174                       diskio
     0000866F  A$diskio$175                       diskio
     00008671  A$diskio$176                       diskio
     00008674  A$diskio$181                       diskio
     00008674  C$diskio.c$50$2_0$346              diskio
     00008676  A$diskio$183                       diskio
     00008679  A$diskio$184                       diskio
     0000867B  A$diskio$186                       diskio
     0000867C  A$diskio$187                       diskio
     0000867E  A$diskio$188                       diskio
     00008681  A$diskio$193                       diskio
     00008682  A$diskio$194                       diskio
     00008684  A$diskio$196                       diskio
     00008686  A$diskio$197                       diskio
     00008688  A$diskio$202                       diskio
     0000868A  A$diskio$203                       diskio
     0000868C  A$diskio$204                       diskio
     0000868E  A$diskio$205                       diskio
     00008690  A$diskio$208                       diskio
     00008692  A$diskio$209                       diskio
     00008694  A$diskio$210                       diskio
     00008696  A$diskio$211                       diskio
     00008698  A$diskio$212                       diskio
     0000869A  A$diskio$213                       diskio
     0000869C  A$diskio$214                       diskio
     0000869E  A$diskio$215                       diskio
     000086A1  A$diskio$221                       diskio
     000086A1  C$diskio.c$54$5_0$349              diskio
     000086A4  A$diskio$225                       diskio
     000086A4  C$diskio.c$53$4_0$348              diskio
     000086A6  A$diskio$226                       diskio
     000086A7  A$diskio$227                       diskio
     000086A9  A$diskio$228                       diskio
     000086AB  A$diskio$229                       diskio
     000086AD  A$diskio$230                       diskio
     000086AE  A$diskio$231                       diskio
     000086B0  A$diskio$234                       diskio
     000086B3  A$diskio$238                       diskio
     000086B5  A$diskio$240                       diskio
     000086B7  A$diskio$241                       diskio
     000086BA  A$diskio$242                       diskio
     000086BC  A$diskio$244                       diskio
     000086BE  A$diskio$245                       diskio
     000086C0  A$diskio$247                       diskio
     000086C2  A$diskio$248                       diskio
     000086C4  A$diskio$255                       diskio
     000086C6  A$diskio$256                       diskio
     000086C8  A$diskio$257                       diskio
     000086CA  A$diskio$258                       diskio
     000086CC  A$diskio$261                       diskio
     000086CE  A$diskio$262                       diskio
ASxxxx Linker V03.00 + NoICE + sdld,  page 28.
Hexadecimal  [32-Bits]

Area                                    Addr        Size        Decimal Bytes (Attributes)
--------------------------------        ----        ----        ------- ----- ------------
CODE                                0000810D    00001FDA =        8154. bytes (REL,CON)

      Value  Global                              Global Defined In Module
      -----  --------------------------------   ------------------------
     000086D0  A$diskio$263                       diskio
     000086D2  A$diskio$264                       diskio
     000086D4  A$diskio$265                       diskio
     000086D6  A$diskio$266                       diskio
     000086D8  A$diskio$267                       diskio
     000086DA  A$diskio$268                       diskio
     000086DD  A$diskio$274                       diskio
     000086DD  C$diskio.c$59$5_0$351              diskio
     000086DF  A$diskio$275                       diskio
     000086E2  A$diskio$276                       diskio
     000086E4  A$diskio$278                       diskio
     000086E6  A$diskio$279                       diskio
     000086E7  A$diskio$283                       diskio
     000086E7  C$diskio.c$62$5_0$351              diskio
     000086E9  A$diskio$284                       diskio
     000086EA  A$diskio$285                       diskio
     000086EC  A$diskio$290                       diskio
     000086EC  C$diskio.c$56$4_0$350              diskio
     000086EE  A$diskio$291                       diskio
     000086EF  A$diskio$292                       diskio
     000086F1  A$diskio$293                       diskio
     000086F3  A$diskio$294                       diskio
     000086F5  A$diskio$297                       diskio
     000086F8  A$diskio$301                       diskio
     000086FA  A$diskio$309                       diskio
     000086FD  A$diskio$310                       diskio
     000086FF  A$diskio$311                       diskio
     00008701  A$diskio$312                       diskio
     00008703  A$diskio$313                       diskio
     00008705  A$diskio$314                       diskio
     00008707  A$diskio$315                       diskio
     0000870A  A$diskio$321                       diskio
     0000870A  C$diskio.c$65$5_0$353              diskio
     0000870B  A$diskio$322                       diskio
     0000870D  A$diskio$323                       diskio
     00008710  A$diskio$324                       diskio
     00008712  A$diskio$325                       diskio
     00008713  A$diskio$329                       diskio
     00008713  C$diskio.c$64$4_0$352              diskio
     00008714  A$diskio$330                       diskio
     00008716  A$diskio$331                       diskio
     00008718  A$diskio$334                       diskio
     0000871B  A$diskio$340                       diskio
     0000871B  C$diskio.c$68$3_0$347              diskio
     0000871E  A$diskio$344                       diskio
     0000871E  C$diskio.c$69$3_0$347              diskio
     00008721  A$diskio$348                       diskio
     00008721  C$diskio.c$71$3_0$347              diskio
     00008723  A$diskio$354                       diskio
     00008723  C$diskio.c$75$1_0$345              diskio
     00008726  A$diskio$356                       diskio
ASxxxx Linker V03.00 + NoICE + sdld,  page 29.
Hexadecimal  [32-Bits]

Area                                    Addr        Size        Decimal Bytes (Attributes)
--------------------------------        ----        ----        ------- ----- ------------
CODE                                0000810D    00001FDA =        8154. bytes (REL,CON)

      Value  Global                              Global Defined In Module
      -----  --------------------------------   ------------------------
     00008728  A$diskio$358                       diskio
     0000872B  A$diskio$362                       diskio
     0000872B  C$diskio.c$78$1_0$345              diskio
     0000872D  A$diskio$364                       diskio
     00008730  A$diskio$365                       diskio
     00008731  A$diskio$369                       diskio
     00008731  C$diskio.c$81$1_0$345              diskio
     00008733  A$diskio$375                       diskio
     00008735  A$diskio$378                       diskio
     00008735  C$diskio.c$82$1_0$345              diskio
     00008735  XG$disk_readp$0$0                  diskio
     00008736  A$diskio$389                       diskio
     00008736  C$diskio.c$90$1_0$355              diskio
     00008736  G$disk_writep$0$0                  diskio
     00008736  _disk_writep                       diskio
     00008738  A$diskio$393                       diskio
     00008738  C$diskio.c$97$2_0$355              diskio
     0000873A  A$diskio$394                       diskio
     0000873C  A$diskio$398                       diskio
     0000873C  C$diskio.c$99$1_0$355              diskio
     0000873E  A$diskio$399                       diskio
     00008740  A$diskio$400                       diskio
     00008743  A$diskio$405                       diskio
     00008743  C$diskio.c$100$2_0$356             diskio
     00008745  A$diskio$406                       diskio
     00008747  A$diskio$407                       diskio
     00008749  A$diskio$408                       diskio
     0000874B  A$diskio$409                       diskio
     0000874E  A$diskio$414                       diskio
     0000874E  C$diskio.c$102$3_0$357             diskio
     00008751  A$diskio$416                       diskio
     00008753  A$diskio$418                       diskio
     00008756  A$diskio$422                       diskio
     00008756  C$diskio.c$104$3_0$357             diskio
     00008758  A$diskio$424                       diskio
     0000875A  A$diskio$425                       diskio
     0000875B  A$diskio$426                       diskio
     0000875D  A$diskio$427                       diskio
     0000875E  A$diskio$429                       diskio
     00008760  A$diskio$431                       diskio
     00008763  A$diskio$432                       diskio
     00008765  A$diskio$436                       diskio
     00008765  C$diskio.c$107$3_0$357             diskio
     00008767  A$diskio$438                       diskio
     0000876A  A$diskio$439                       diskio
     0000876C  A$diskio$441                       diskio
     0000876D  A$diskio$442                       diskio
     0000876F  A$diskio$443                       diskio
     00008772  A$diskio$448                       diskio
     00008772  C$diskio.c$110$4_0$358             diskio
     00008774  A$diskio$450                       diskio
ASxxxx Linker V03.00 + NoICE + sdld,  page 30.
Hexadecimal  [32-Bits]

Area                                    Addr        Size        Decimal Bytes (Attributes)
--------------------------------        ----        ----        ------- ----- ------------
CODE                                0000810D    00001FDA =        8154. bytes (REL,CON)

      Value  Global                              Global Defined In Module
      -----  --------------------------------   ------------------------
     00008777  A$diskio$451                       diskio
     00008778  A$diskio$455                       diskio
     00008778  C$diskio.c$112$4_0$358             diskio
     0000877A  A$diskio$457                       diskio
     0000877D  A$diskio$458                       diskio
     0000877E  A$diskio$462                       diskio
     0000877E  C$diskio.c$113$4_0$358             diskio
     00008781  A$diskio$463                       diskio
     00008784  A$diskio$464                       diskio
     00008785  A$diskio$465                       diskio
     00008788  A$diskio$469                       diskio
     00008788  C$diskio.c$114$4_0$358             diskio
     0000878A  A$diskio$471                       diskio
     0000878D  A$diskio$477                       diskio
     0000878D  C$diskio.c$118$3_0$359             diskio
     00008790  A$diskio$478                       diskio
     00008792  A$diskio$479                       diskio
     00008795  A$diskio$480                       diskio
     00008797  A$diskio$482                       diskio
     0000879A  A$diskio$483                       diskio
     0000879D  A$diskio$484                       diskio
     000087A1  A$diskio$485                       diskio
     000087A3  A$diskio$486                       diskio
     000087A5  A$diskio$489                       diskio
     000087A8  A$diskio$490                       diskio
     000087AC  A$diskio$492                       diskio
     000087AE  A$diskio$493                       diskio
     000087B0  A$diskio$494                       diskio
     000087B2  A$diskio$495                       diskio
     000087B4  A$diskio$496                       diskio
     000087B7  A$diskio$501                       diskio
     000087B7  C$diskio.c$119$4_0$360             diskio
     000087B9  A$diskio$503                       diskio
     000087BC  A$diskio$504                       diskio
     000087BD  A$diskio$506                       diskio
     000087C0  A$diskio$512                       diskio
     000087C0  C$diskio.c$122$3_0$359             diskio
     000087C2  A$diskio$514                       diskio
     000087C5  A$diskio$515                       diskio
     000087C6  A$diskio$519                       diskio
     000087C6  C$diskio.c$123$3_0$359             diskio
     000087C8  A$diskio$521                       diskio
     000087CB  A$diskio$522                       diskio
     000087CC  A$diskio$526                       diskio
     000087CC  C$diskio.c$126$3_0$359             diskio
     000087CF  A$diskio$528                       diskio
     000087D1  A$diskio$529                       diskio
     000087D3  A$diskio$530                       diskio
     000087D6  A$diskio$532                       diskio
     000087D9  A$diskio$538                       diskio
     000087D9  C$diskio.c$127$5_0$362             diskio
ASxxxx Linker V03.00 + NoICE + sdld,  page 31.
Hexadecimal  [32-Bits]

Area                                    Addr        Size        Decimal Bytes (Attributes)
--------------------------------        ----        ----        ------- ----- ------------
CODE                                0000810D    00001FDA =        8154. bytes (REL,CON)

      Value  Global                              Global Defined In Module
      -----  --------------------------------   ------------------------
     000087DC  A$diskio$539                       diskio
     000087DF  A$diskio$540                       diskio
     000087E0  A$diskio$541                       diskio
     000087E3  A$diskio$547                       diskio
     000087E3  C$diskio.c$128$5_0$362             diskio
     000087E6  A$diskio$549                       diskio
     000087E7  A$diskio$550                       diskio
     000087E9  A$diskio$551                       diskio
     000087EC  A$diskio$555                       diskio
     000087EF  A$diskio$556                       diskio
     000087F1  A$diskio$557                       diskio
     000087F4  A$diskio$558                       diskio
     000087F6  A$diskio$559                       diskio
     000087F9  A$diskio$564                       diskio
     000087F9  C$diskio.c$130$6_0$363             diskio
     000087FB  A$diskio$565                       diskio
     000087FC  A$diskio$566                       diskio
     000087FD  A$diskio$567                       diskio
     000087FF  A$diskio$569                       diskio
     00008802  A$diskio$570                       diskio
     00008804  A$diskio$574                       diskio
     00008804  C$diskio.c$129$5_0$362             diskio
     00008807  A$diskio$575                       diskio
     0000880A  A$diskio$576                       diskio
     0000880E  A$diskio$577                       diskio
     00008810  A$diskio$578                       diskio
     00008812  A$diskio$581                       diskio
     00008815  A$diskio$582                       diskio
     00008819  A$diskio$584                       diskio
     0000881C  A$diskio$590                       diskio
     0000881C  C$diskio.c$132$4_0$361             diskio
     0000881F  A$diskio$591                       diskio
     00008821  A$diskio$592                       diskio
     00008824  A$diskio$593                       diskio
     00008826  A$diskio$594                       diskio
     00008829  A$diskio$597                       diskio
     0000882B  A$diskio$603                       diskio
     0000882B  C$diskio.c$136$3_0$359             diskio
     0000882E  A$diskio$605                       diskio
     00008830  A$diskio$607                       diskio
     00008833  A$diskio$611                       diskio
     00008833  C$diskio.c$138$3_0$359             diskio
     00008835  A$diskio$613                       diskio
     00008838  A$diskio$614                       diskio
     00008839  A$diskio$616                       diskio
     0000883C  A$diskio$622                       diskio
     0000883C  C$diskio.c$143$1_0$355             diskio
     0000883E  A$diskio$623                       diskio
     00008840  A$diskio$625                       diskio
     00008842  A$diskio$626                       diskio
     00008844  A$diskio$627                       diskio
ASxxxx Linker V03.00 + NoICE + sdld,  page 32.
Hexadecimal  [32-Bits]

Area                                    Addr        Size        Decimal Bytes (Attributes)
--------------------------------        ----        ----        ------- ----- ------------
CODE                                0000810D    00001FDA =        8154. bytes (REL,CON)

      Value  Global                              Global Defined In Module
      -----  --------------------------------   ------------------------
     00008846  A$diskio$628                       diskio
     00008848  A$diskio$632                       diskio
     0000884B  A$diskio$633                       diskio
     0000884D  A$diskio$634                       diskio
     00008850  A$diskio$635                       diskio
     00008852  A$diskio$636                       diskio
     00008855  A$diskio$639                       diskio
     00008857  A$diskio$640                       diskio
     00008859  A$diskio$641                       diskio
     0000885B  A$diskio$642                       diskio
     0000885D  A$diskio$643                       diskio
     00008860  A$diskio$648                       diskio
     00008860  C$diskio.c$146$3_0$365             diskio
     00008862  A$diskio$649                       diskio
     00008863  A$diskio$651                       diskio
     00008864  A$diskio$653                       diskio
     00008867  A$diskio$654                       diskio
     00008868  A$diskio$658                       diskio
     00008868  C$diskio.c$148$3_0$365             diskio
     0000886A  A$diskio$659                       diskio
     0000886B  A$diskio$660                       diskio
     0000886D  A$diskio$663                       diskio
     00008870  A$diskio$664                       diskio
     00008873  A$diskio$665                       diskio
     00008877  A$diskio$666                       diskio
     00008879  A$diskio$667                       diskio
     0000887B  A$diskio$670                       diskio
     0000887E  A$diskio$671                       diskio
     00008882  A$diskio$673                       diskio
     00008884  A$diskio$674                       diskio
     00008887  A$diskio$675                       diskio
     00008889  A$diskio$676                       diskio
     0000888B  A$diskio$677                       diskio
     0000888D  A$diskio$678                       diskio
     0000888E  A$diskio$680                       diskio
     00008890  A$diskio$682                       diskio
     00008893  A$diskio$688                       diskio
     00008893  C$diskio.c$150$2_0$364             diskio
     00008895  A$diskio$694                       diskio
     00008895  C$diskio.c$153$1_0$355             diskio
     00008897  A$diskio$700                       diskio
     00008899  A$diskio$703                       diskio
     00008899  C$diskio.c$154$1_0$355             diskio
     00008899  XG$disk_writep$0$0                 diskio
     0000889A  A$dly$69                           dly
     0000889A  C$dly.c$44$0_0$321                 dly
     0000889A  C$dly.c$46$1_0$321                 dly
     0000889A  G$sysTickInit$0$0                  dly
     0000889A  _sysTickInit                       dly
     0000889B  A$dly$70                           dly
     0000889E  A$dly$71                           dly
ASxxxx Linker V03.00 + NoICE + sdld,  page 33.
Hexadecimal  [32-Bits]

Area                                    Addr        Size        Decimal Bytes (Attributes)
--------------------------------        ----        ----        ------- ----- ------------
CODE                                0000810D    00001FDA =        8154. bytes (REL,CON)

      Value  Global                              Global Defined In Module
      -----  --------------------------------   ------------------------
     000088A1  A$dly$75                           dly
     000088A1  C$dly.c$47$1_0$321                 dly
     000088A4  A$dly$83                           dly
     000088A4  C$dly.c$48$1_0$321                 dly
     000088A4  XG$sysTickInit$0$0                 dly
     000088A5  A$dly$97                           dly
     000088A5  C$dly.c$59$1_0$323                 dly
     000088A5  C$dly.c$61$1_0$323                 dly
     000088A5  Fdly$tim4Init$0$0                  dly
     000088A9  A$dly$101                          dly
     000088A9  C$dly.c$62$1_0$323                 dly
     000088AD  A$dly$105                          dly
     000088AD  C$dly.c$63$1_0$323                 dly
     000088B1  A$dly$109                          dly
     000088B1  C$dly.c$64$1_0$323                 dly
     000088B5  A$dly$113                          dly
     000088B5  C$dly.c$65$1_0$323                 dly
     000088B8  A$dly$115                          dly
     000088BA  A$dly$117                          dly
     000088BD  A$dly$125                          dly
     000088BD  C$dly.c$66$1_0$323                 dly
     000088BD  XFdly$tim4Init$0$0                 dly
     000088BE  A$dly$139                          dly
     000088BE  C$dly.c$79$1_0$325                 dly
     000088BE  C$dly.c$81$1_0$325                 dly
     000088BE  G$dly$0$0                          dly
     000088BE  _dly                               dly
     000088C2  A$dly$140                          dly
     000088C5  A$dly$141                          dly
     000088C8  A$dly$142                          dly
     000088CA  A$dly$143                          dly
     000088CB  A$dly$145                          dly
     000088CE  A$dly$152                          dly
     000088CE  C$dly.c$82$1_0$325                 dly
     000088D2  A$dly$153                          dly
     000088D4  A$dly$154                          dly
     000088D7  A$dly$155                          dly
     000088D9  A$dly$156                          dly
     000088DC  A$dly$158                          dly
     000088DF  A$dly$168                          dly
     000088DF  C$dly.c$83$1_0$325                 dly
     000088DF  XG$dly$0$0                         dly
     000088E0  A$dly$182                          dly
     000088E0  C$dly.c$97$1_0$327                 dly
     000088E0  C$dly.c$99$1_0$327                 dly
     000088E0  G$systemTickIsr$0$0                dly
     000088E0  _systemTickIsr                     dly
     000088E3  A$dly$183                          dly
     000088E7  A$dly$185                          dly
     000088E8  A$dly$186                          dly
     000088EA  A$dly$187                          dly
ASxxxx Linker V03.00 + NoICE + sdld,  page 34.
Hexadecimal  [32-Bits]

Area                                    Addr        Size        Decimal Bytes (Attributes)
--------------------------------        ----        ----        ------- ----- ------------
CODE                                0000810D    00001FDA =        8154. bytes (REL,CON)

      Value  Global                              Global Defined In Module
      -----  --------------------------------   ------------------------
     000088EC  A$dly$190                          dly
     000088EF  A$dly$191                          dly
     000088F3  A$dly$195                          dly
     000088F3  C$dly.c$100$1_0$327                dly
     000088F7  A$dly$199                          dly
     000088F7  C$dly.c$101$1_0$327                dly
     000088FA  A$dly$207                          dly
     000088FA  C$dly.c$102$1_0$327                dly
     000088FA  XG$systemTickIsr$0$0               dly
     000088FB  A$led_matrix$72                    led_matrix
     000088FB  C$led_matrix.c$52$0_0$320          led_matrix
     000088FB  C$led_matrix.c$54$1_0$320          led_matrix
     000088FB  G$LedMatrixInit$0$0                led_matrix
     000088FB  _LedMatrixInit                     led_matrix
     000088FE  A$led_matrix$80                    led_matrix
     000088FE  C$led_matrix.c$55$1_0$320          led_matrix
     000088FE  XG$LedMatrixInit$0$0               led_matrix
     000088FF  A$led_matrix$91                    led_matrix
     000088FF  C$led_matrix.c$71$1_0$322          led_matrix
     000088FF  G$SetLedMode$0$0                   led_matrix
     000088FF  _SetLedMode                        led_matrix
     00008901  A$led_matrix$96                    led_matrix
     00008901  C$led_matrix.c$75$1_0$322          led_matrix
     00008903  A$led_matrix$97                    led_matrix
     00008905  A$led_matrix$98                    led_matrix
     00008907  A$led_matrix$99                    led_matrix
     0000890A  A$led_matrix$103                   led_matrix
     0000890D  A$led_matrix$110                   led_matrix
     0000890D  C$led_matrix.c$76$1_0$322          led_matrix
     0000890F  A$led_matrix$111                   led_matrix
     00008911  A$led_matrix$112                   led_matrix
     00008913  A$led_matrix$113                   led_matrix
     00008916  A$led_matrix$117                   led_matrix
     00008919  A$led_matrix$123                   led_matrix
     00008919  C$led_matrix.c$78$1_0$322          led_matrix
     0000891B  A$led_matrix$124                   led_matrix
     0000891D  A$led_matrix$125                   led_matrix
     0000891F  A$led_matrix$126                   led_matrix
     00008922  A$led_matrix$130                   led_matrix
     00008924  A$led_matrix$131                   led_matrix
     00008925  A$led_matrix$132                   led_matrix
     00008927  A$led_matrix$133                   led_matrix
     0000892A  A$led_matrix$137                   led_matrix
     0000892C  A$led_matrix$138                   led_matrix
     0000892E  A$led_matrix$139                   led_matrix
     00008930  A$led_matrix$140                   led_matrix
     00008933  A$led_matrix$144                   led_matrix
     00008935  A$led_matrix$145                   led_matrix
     00008937  A$led_matrix$146                   led_matrix
     00008939  A$led_matrix$147                   led_matrix
     0000893C  A$led_matrix$149                   led_matrix
ASxxxx Linker V03.00 + NoICE + sdld,  page 35.
Hexadecimal  [32-Bits]

Area                                    Addr        Size        Decimal Bytes (Attributes)
--------------------------------        ----        ----        ------- ----- ------------
CODE                                0000810D    00001FDA =        8154. bytes (REL,CON)

      Value  Global                              Global Defined In Module
      -----  --------------------------------   ------------------------
     0000893F  A$led_matrix$159                   led_matrix
     0000893F  C$led_matrix.c$80$2_0$323          led_matrix
     00008940  A$led_matrix$160                   led_matrix
     00008942  A$led_matrix$161                   led_matrix
     00008943  A$led_matrix$162                   led_matrix
     00008944  A$led_matrix$163                   led_matrix
     00008945  A$led_matrix$165                   led_matrix
     00008948  A$led_matrix$167                   led_matrix
     0000894A  A$led_matrix$168                   led_matrix
     0000894C  A$led_matrix$169                   led_matrix
     0000894D  A$led_matrix$171                   led_matrix
     0000894F  A$led_matrix$172                   led_matrix
     00008950  A$led_matrix$174                   led_matrix
     00008952  A$led_matrix$175                   led_matrix
     00008953  A$led_matrix$177                   led_matrix
     00008956  A$led_matrix$178                   led_matrix
     00008957  A$led_matrix$180                   led_matrix
     0000895A  A$led_matrix$188                   led_matrix
     0000895A  C$led_matrix.c$81$2_0$323          led_matrix
     0000895A  C$led_matrix.c$82$2_0$323          led_matrix
     0000895D  A$led_matrix$189                   led_matrix
     00008960  A$led_matrix$190                   led_matrix
     00008964  A$led_matrix$191                   led_matrix
     00008966  A$led_matrix$192                   led_matrix
     00008968  A$led_matrix$195                   led_matrix
     0000896A  A$led_matrix$196                   led_matrix
     0000896C  A$led_matrix$200                   led_matrix
     0000896C  C$led_matrix.c$83$2_0$323          led_matrix
     0000896E  A$led_matrix$201                   led_matrix
     00008970  A$led_matrix$202                   led_matrix
     00008972  A$led_matrix$203                   led_matrix
     00008974  A$led_matrix$204                   led_matrix
     00008977  A$led_matrix$207                   led_matrix
     0000897A  A$led_matrix$208                   led_matrix
     0000897C  A$led_matrix$209                   led_matrix
     0000897D  A$led_matrix$210                   led_matrix
     0000897F  A$led_matrix$212                   led_matrix
     00008982  A$led_matrix$218                   led_matrix
     00008982  C$led_matrix.c$84$2_0$323          led_matrix
     00008984  A$led_matrix$219                   led_matrix
     00008985  A$led_matrix$220                   led_matrix
     00008987  A$led_matrix$221                   led_matrix
     0000898A  A$led_matrix$225                   led_matrix
     0000898C  A$led_matrix$226                   led_matrix
     0000898F  A$led_matrix$227                   led_matrix
     00008991  A$led_matrix$228                   led_matrix
     00008993  A$led_matrix$229                   led_matrix
     00008995  A$led_matrix$232                   led_matrix
     00008997  A$led_matrix$233                   led_matrix
     00008999  A$led_matrix$235                   led_matrix
     0000899C  A$led_matrix$249                   led_matrix
ASxxxx Linker V03.00 + NoICE + sdld,  page 36.
Hexadecimal  [32-Bits]

Area                                    Addr        Size        Decimal Bytes (Attributes)
--------------------------------        ----        ----        ------- ----- ------------
CODE                                0000810D    00001FDA =        8154. bytes (REL,CON)

      Value  Global                              Global Defined In Module
      -----  --------------------------------   ------------------------
     0000899C  C$led_matrix.c$85$2_0$323          led_matrix
     0000899D  A$led_matrix$250                   led_matrix
     0000899F  A$led_matrix$251                   led_matrix
     000089A0  A$led_matrix$252                   led_matrix
     000089A1  A$led_matrix$253                   led_matrix
     000089A2  A$led_matrix$255                   led_matrix
     000089A5  A$led_matrix$257                   led_matrix
     000089A7  A$led_matrix$258                   led_matrix
     000089A9  A$led_matrix$259                   led_matrix
     000089AB  A$led_matrix$260                   led_matrix
     000089AC  A$led_matrix$262                   led_matrix
     000089AF  A$led_matrix$270                   led_matrix
     000089AF  C$led_matrix.c$86$2_0$323          led_matrix
     000089AF  C$led_matrix.c$87$2_0$323          led_matrix
     000089B2  A$led_matrix$271                   led_matrix
     000089B5  A$led_matrix$272                   led_matrix
     000089B9  A$led_matrix$273                   led_matrix
     000089BB  A$led_matrix$274                   led_matrix
     000089BD  A$led_matrix$277                   led_matrix
     000089BF  A$led_matrix$278                   led_matrix
     000089C1  A$led_matrix$282                   led_matrix
     000089C1  C$led_matrix.c$88$2_0$323          led_matrix
     000089C3  A$led_matrix$283                   led_matrix
     000089C4  A$led_matrix$284                   led_matrix
     000089C6  A$led_matrix$285                   led_matrix
     000089C9  A$led_matrix$289                   led_matrix
     000089CB  A$led_matrix$290                   led_matrix
     000089CD  A$led_matrix$291                   led_matrix
     000089CF  A$led_matrix$292                   led_matrix
     000089D1  A$led_matrix$294                   led_matrix
     000089D4  A$led_matrix$298                   led_matrix
     000089D6  A$led_matrix$299                   led_matrix
     000089D9  A$led_matrix$300                   led_matrix
     000089DB  A$led_matrix$301                   led_matrix
     000089DD  A$led_matrix$302                   led_matrix
     000089DF  A$led_matrix$303                   led_matrix
     000089E0  A$led_matrix$306                   led_matrix
     000089E2  A$led_matrix$310                   led_matrix
     000089E4  A$led_matrix$316                   led_matrix
     000089E4  C$led_matrix.c$89$2_0$323          led_matrix
     000089E5  A$led_matrix$317                   led_matrix
     000089E7  A$led_matrix$318                   led_matrix
     000089E8  A$led_matrix$319                   led_matrix
     000089E9  A$led_matrix$320                   led_matrix
     000089EA  A$led_matrix$322                   led_matrix
     000089ED  A$led_matrix$324                   led_matrix
     000089EF  A$led_matrix$325                   led_matrix
     000089F1  A$led_matrix$326                   led_matrix
     000089F2  A$led_matrix$334                   led_matrix
     000089F2  C$led_matrix.c$90$1_0$322          led_matrix
     000089F4  A$led_matrix$337                   led_matrix
ASxxxx Linker V03.00 + NoICE + sdld,  page 37.
Hexadecimal  [32-Bits]

Area                                    Addr        Size        Decimal Bytes (Attributes)
--------------------------------        ----        ----        ------- ----- ------------
CODE                                0000810D    00001FDA =        8154. bytes (REL,CON)

      Value  Global                              Global Defined In Module
      -----  --------------------------------   ------------------------
     000089F4  C$led_matrix.c$91$1_0$322          led_matrix
     000089F4  XG$SetLedMode$0$0                  led_matrix
     000089F5  A$led_matrix$348                   led_matrix
     000089F5  C$led_matrix.c$95$1_0$324          led_matrix
     000089F5  G$UpdateLeds$0$0                   led_matrix
     000089F5  _UpdateLeds                        led_matrix
     000089F7  A$led_matrix$352                   led_matrix
     000089F9  A$led_matrix$360                   led_matrix
     000089F9  C$led_matrix.c$101$3_0$326         led_matrix
     000089FA  A$led_matrix$361                   led_matrix
     000089FC  A$led_matrix$362                   led_matrix
     000089FD  A$led_matrix$363                   led_matrix
     000089FE  A$led_matrix$364                   led_matrix
     000089FF  A$led_matrix$366                   led_matrix
     00008A02  A$led_matrix$368                   led_matrix
     00008A04  A$led_matrix$369                   led_matrix
     00008A07  A$led_matrix$370                   led_matrix
     00008A08  A$led_matrix$372                   led_matrix
     00008A0A  A$led_matrix$373                   led_matrix
     00008A0C  A$led_matrix$377                   led_matrix
     00008A0C  C$led_matrix.c$102$3_0$326         led_matrix
     00008A0E  A$led_matrix$378                   led_matrix
     00008A10  A$led_matrix$379                   led_matrix
     00008A12  A$led_matrix$380                   led_matrix
     00008A14  A$led_matrix$381                   led_matrix
     00008A17  A$led_matrix$384                   led_matrix
     00008A19  A$led_matrix$385                   led_matrix
     00008A1C  A$led_matrix$386                   led_matrix
     00008A1E  A$led_matrix$387                   led_matrix
     00008A20  A$led_matrix$388                   led_matrix
     00008A23  A$led_matrix$389                   led_matrix
     00008A25  A$led_matrix$390                   led_matrix
     00008A28  A$led_matrix$392                   led_matrix
     00008A2B  A$led_matrix$399                   led_matrix
     00008A2B  C$led_matrix.c$103$4_0$327         led_matrix
     00008A2C  A$led_matrix$400                   led_matrix
     00008A2E  A$led_matrix$401                   led_matrix
     00008A2F  A$led_matrix$402                   led_matrix
     00008A30  A$led_matrix$403                   led_matrix
     00008A31  A$led_matrix$405                   led_matrix
     00008A34  A$led_matrix$406                   led_matrix
     00008A36  A$led_matrix$408                   led_matrix
     00008A38  A$led_matrix$409                   led_matrix
     00008A3A  A$led_matrix$410                   led_matrix
     00008A3D  A$led_matrix$411                   led_matrix
     00008A3F  A$led_matrix$412                   led_matrix
     00008A40  A$led_matrix$413                   led_matrix
     00008A42  A$led_matrix$415                   led_matrix
     00008A44  A$led_matrix$416                   led_matrix
     00008A45  A$led_matrix$417                   led_matrix
     00008A47  A$led_matrix$418                   led_matrix
ASxxxx Linker V03.00 + NoICE + sdld,  page 38.
Hexadecimal  [32-Bits]

Area                                    Addr        Size        Decimal Bytes (Attributes)
--------------------------------        ----        ----        ------- ----- ------------
CODE                                0000810D    00001FDA =        8154. bytes (REL,CON)

      Value  Global                              Global Defined In Module
      -----  --------------------------------   ------------------------
     00008A4A  A$led_matrix$422                   led_matrix
     00008A4D  A$led_matrix$423                   led_matrix
     00008A4F  A$led_matrix$425                   led_matrix
     00008A52  A$led_matrix$429                   led_matrix
     00008A55  A$led_matrix$430                   led_matrix
     00008A57  A$led_matrix$434                   led_matrix
     00008A59  A$led_matrix$435                   led_matrix
     00008A5B  A$led_matrix$436                   led_matrix
     00008A5D  A$led_matrix$437                   led_matrix
     00008A5E  A$led_matrix$438                   led_matrix
     00008A5F  A$led_matrix$439                   led_matrix
     00008A61  A$led_matrix$440                   led_matrix
     00008A63  A$led_matrix$441                   led_matrix
     00008A65  A$led_matrix$443                   led_matrix
     00008A67  A$led_matrix$444                   led_matrix
     00008A6A  A$led_matrix$445                   led_matrix
     00008A6C  A$led_matrix$446                   led_matrix
     00008A6E  A$led_matrix$447                   led_matrix
     00008A70  A$led_matrix$448                   led_matrix
     00008A72  A$led_matrix$449                   led_matrix
     00008A74  A$led_matrix$450                   led_matrix
     00008A76  A$led_matrix$451                   led_matrix
     00008A78  A$led_matrix$453                   led_matrix
     00008A7A  A$led_matrix$454                   led_matrix
     00008A7C  A$led_matrix$455                   led_matrix
     00008A7E  A$led_matrix$456                   led_matrix
     00008A80  A$led_matrix$457                   led_matrix
     00008A81  A$led_matrix$461                   led_matrix
     00008A81  C$led_matrix.c$104$4_0$327         led_matrix
     00008A83  A$led_matrix$462                   led_matrix
     00008A84  A$led_matrix$464                   led_matrix
     00008A87  A$led_matrix$465                   led_matrix
     00008A89  A$led_matrix$467                   led_matrix
     00008A8B  A$led_matrix$468                   led_matrix
     00008A8C  A$led_matrix$469                   led_matrix
     00008A8D  A$led_matrix$473                   led_matrix
     00008A8E  A$led_matrix$475                   led_matrix
     00008A90  A$led_matrix$476                   led_matrix
     00008A91  A$led_matrix$478                   led_matrix
     00008A94  A$led_matrix$479                   led_matrix
     00008A95  A$led_matrix$485                   led_matrix
     00008A95  C$led_matrix.c$100$2_0$325         led_matrix
     00008A97  A$led_matrix$488                   led_matrix
     00008A99  A$led_matrix$489                   led_matrix
     00008A9B  A$led_matrix$490                   led_matrix
     00008A9D  A$led_matrix$491                   led_matrix
     00008AA0  A$led_matrix$497                   led_matrix
     00008AA0  C$led_matrix.c$108$1_0$324         led_matrix
     00008AA2  A$led_matrix$498                   led_matrix
     00008AA5  A$led_matrix$504                   led_matrix
     00008AA7  A$led_matrix$507                   led_matrix
ASxxxx Linker V03.00 + NoICE + sdld,  page 39.
Hexadecimal  [32-Bits]

Area                                    Addr        Size        Decimal Bytes (Attributes)
--------------------------------        ----        ----        ------- ----- ------------
CODE                                0000810D    00001FDA =        8154. bytes (REL,CON)

      Value  Global                              Global Defined In Module
      -----  --------------------------------   ------------------------
     00008AA7  C$led_matrix.c$109$1_0$324         led_matrix
     00008AA7  XG$UpdateLeds$0$0                  led_matrix
     00008AA8  A$leds$86                          leds
     00008AA8  C$leds.c$55$0_0$319                leds
     00008AA8  C$leds.c$57$1_0$319                leds
     00008AA8  G$LedsInit$0$0                     leds
     00008AA8  _LedsInit                          leds
     00008AA9  A$leds$87                          leds
     00008AAC  A$leds$91                          leds
     00008AAC  C$leds.c$58$1_0$319                leds
     00008AAF  A$leds$99                          leds
     00008AAF  C$leds.c$59$1_0$319                leds
     00008AAF  XG$LedsInit$0$0                    leds
     00008AB0  A$leds$113                         leds
     00008AB0  C$leds.c$72$1_0$322                leds
     00008AB0  Fleds$GpioInit$0$0                 leds
     00008AB1  A$leds$119                         leds
     00008AB1  C$leds.c$76$3_0$323                leds
     00008AB2  A$leds$120                         leds
     00008AB4  A$leds$122                         leds
     00008AB5  A$leds$124                         leds
     00008AB8  A$leds$125                         leds
     00008AB9  A$leds$126                         leds
     00008ABA  A$leds$130                         leds
     00008ABA  C$leds.c$75$2_0$322                leds
     00008ABB  A$leds$133                         leds
     00008ABD  A$leds$134                         leds
     00008ABF  A$leds$135                         leds
     00008AC2  A$leds$145                         leds
     00008AC2  C$leds.c$78$2_0$322                leds
     00008AC2  XFleds$GpioInit$0$0                leds
     00008AC3  A$leds$159                         leds
     00008AC3  C$leds.c$101$1_0$325               leds
     00008AC3  C$leds.c$95$2_0$325                leds
     00008AC3  G$UpdateLedState$0$0               leds
     00008AC3  _UpdateLedState                    leds
     00008AC6  A$leds$160                         leds
     00008AC8  A$leds$161                         leds
     00008ACA  A$leds$162                         leds
     00008ACD  A$leds$164                         leds
     00008AD0  A$leds$168                         leds
     00008AD1  A$leds$169                         leds
     00008AD2  A$leds$171                         leds
     00008AD5  A$leds$176                         leds
     00008AD8  A$leds$178                         leds
     00008AD9  A$leds$180                         leds
     00008ADA  A$leds$181                         leds
     00008ADB  A$leds$182                         leds
     00008ADC  A$leds$183                         leds
     00008ADE  A$leds$184                         leds
     00008ADF  A$leds$185                         leds
ASxxxx Linker V03.00 + NoICE + sdld,  page 40.
Hexadecimal  [32-Bits]

Area                                    Addr        Size        Decimal Bytes (Attributes)
--------------------------------        ----        ----        ------- ----- ------------
CODE                                0000810D    00001FDA =        8154. bytes (REL,CON)

      Value  Global                              Global Defined In Module
      -----  --------------------------------   ------------------------
     00008AE0  A$leds$191                         leds
     00008AE3  A$leds$195                         leds
     00008AE3  C$leds.c$103$1_0$325               leds
     00008AE5  A$leds$197                         leds
     00008AE8  A$leds$199                         leds
     00008AEB  A$leds$200                         leds
     00008AEC  A$leds$204                         leds
     00008AEC  C$leds.c$104$1_0$325               leds
     00008AEF  A$leds$206                         leds
     00008AF2  A$leds$207                         leds
     00008AF4  A$leds$209                         leds
     00008AF5  A$leds$211                         leds
     00008AF8  A$leds$213                         leds
     00008AFB  A$leds$214                         leds
     00008AFC  A$leds$218                         leds
     00008AFC  C$leds.c$105$1_0$325               leds
     00008B01  A$leds$226                         leds
     00008B01  C$leds.c$106$1_0$325               leds
     00008B01  XG$UpdateLedState$0$0              leds
     00008B02  A$leds$237                         leds
     00008B02  C$leds.c$126$1_0$327               leds
     00008B02  G$SetLedRaw$0$0                    leds
     00008B02  _SetLedRaw                         leds
     00008B04  A$leds$242                         leds
     00008B04  C$leds.c$128$1_0$327               leds
     00008B06  A$leds$243                         leds
     00008B08  A$leds$244                         leds
     00008B0A  A$leds$245                         leds
     00008B0D  A$leds$249                         leds
     00008B10  A$leds$256                         leds
     00008B10  C$leds.c$129$1_0$327               leds
     00008B12  A$leds$258                         leds
     00008B13  A$leds$259                         leds
     00008B15  A$leds$265                         leds
     00008B15  C$leds.c$131$1_1$328               leds
     00008B16  A$leds$266                         leds
     00008B18  A$leds$267                         leds
     00008B19  A$leds$269                         leds
     00008B1A  A$leds$270                         leds
     00008B1B  A$leds$272                         leds
     00008B1C  A$leds$273                         leds
     00008B1F  A$leds$275                         leds
     00008B20  A$leds$279                         leds
     00008B22  A$leds$284                         leds
     00008B22  C$leds.c$132$1_1$328               leds
     00008B23  A$leds$285                         leds
     00008B26  A$leds$287                         leds
     00008B27  A$leds$291                         leds
     00008B29  A$leds$296                         leds
     00008B29  C$leds.c$133$1_1$328               leds
     00008B2B  A$leds$298                         leds
ASxxxx Linker V03.00 + NoICE + sdld,  page 41.
Hexadecimal  [32-Bits]

Area                                    Addr        Size        Decimal Bytes (Attributes)
--------------------------------        ----        ----        ------- ----- ------------
CODE                                0000810D    00001FDA =        8154. bytes (REL,CON)

      Value  Global                              Global Defined In Module
      -----  --------------------------------   ------------------------
     00008B2C  A$leds$300                         leds
     00008B2D  A$leds$301                         leds
     00008B2E  A$leds$302                         leds
     00008B2F  A$leds$303                         leds
     00008B30  A$leds$304                         leds
     00008B32  A$leds$305                         leds
     00008B33  A$leds$307                         leds
     00008B34  A$leds$308                         leds
     00008B35  A$leds$310                         leds
     00008B36  A$leds$311                         leds
     00008B39  A$leds$313                         leds
     00008B3B  A$leds$314                         leds
     00008B3D  A$leds$318                         leds
     00008B3D  C$leds.c$134$1_1$328               leds
     00008B3E  A$leds$319                         leds
     00008B41  A$leds$321                         leds
     00008B43  A$leds$322                         leds
     00008B45  A$leds$326                         leds
     00008B45  C$leds.c$138$1_1$327               leds
     00008B47  A$leds$327                         leds
     00008B48  A$leds$328                         leds
     00008B4A  A$leds$332                         leds
     00008B4A  C$leds.c$139$1_1$327               leds
     00008B4C  A$leds$333                         leds
     00008B4D  A$leds$334                         leds
     00008B4F  A$leds$338                         leds
     00008B4F  C$leds.c$141$1_1$327               leds
     00008B51  A$leds$339                         leds
     00008B52  A$leds$340                         leds
     00008B53  A$leds$341                         leds
     00008B55  A$leds$345                         leds
     00008B55  C$leds.c$142$1_1$327               leds
     00008B57  A$leds$346                         leds
     00008B58  A$leds$347                         leds
     00008B59  A$leds$348                         leds
     00008B5B  A$leds$352                         leds
     00008B5B  C$leds.c$143$1_1$327               leds
     00008B5D  A$leds$353                         leds
     00008B61  A$leds$357                         leds
     00008B61  C$leds.c$144$1_1$327               leds
     00008B63  A$leds$358                         leds
     00008B66  A$leds$359                         leds
     00008B68  A$leds$363                         leds
     00008B68  C$leds.c$136$1_1$328               leds
     00008B6A  A$leds$364                         leds
     00008B6C  A$leds$365                         leds
     00008B6F  A$leds$370                         leds
     00008B6F  C$leds.c$138$2_1$329               leds
     00008B71  A$leds$371                         leds
     00008B73  A$leds$373                         leds
     00008B75  A$leds$374                         leds
ASxxxx Linker V03.00 + NoICE + sdld,  page 42.
Hexadecimal  [32-Bits]

Area                                    Addr        Size        Decimal Bytes (Attributes)
--------------------------------        ----        ----        ------- ----- ------------
CODE                                0000810D    00001FDA =        8154. bytes (REL,CON)

      Value  Global                              Global Defined In Module
      -----  --------------------------------   ------------------------
     00008B76  A$leds$378                         leds
     00008B76  C$leds.c$139$2_1$329               leds
     00008B78  A$leds$379                         leds
     00008B79  A$leds$381                         leds
     00008B7B  A$leds$383                         leds
     00008B7D  A$leds$384                         leds
     00008B7E  A$leds$388                         leds
     00008B7E  C$leds.c$141$2_1$329               leds
     00008B80  A$leds$389                         leds
     00008B81  A$leds$391                         leds
     00008B83  A$leds$393                         leds
     00008B85  A$leds$394                         leds
     00008B86  A$leds$398                         leds
     00008B86  C$leds.c$142$2_1$329               leds
     00008B88  A$leds$399                         leds
     00008B89  A$leds$401                         leds
     00008B8B  A$leds$403                         leds
     00008B8D  A$leds$404                         leds
     00008B8E  A$leds$408                         leds
     00008B8E  C$leds.c$143$2_1$329               leds
     00008B90  A$leds$410                         leds
     00008B92  A$leds$412                         leds
     00008B94  A$leds$416                         leds
     00008B94  C$leds.c$144$2_1$329               leds
     00008B96  A$leds$417                         leds
     00008B97  A$leds$419                         leds
     00008B99  A$leds$421                         leds
     00008B9B  A$leds$422                         leds
     00008B9C  A$leds$424                         leds
     00008B9F  A$leds$430                         leds
     00008B9F  C$leds.c$148$2_1$330               leds
     00008BA1  A$leds$432                         leds
     00008BA3  A$leds$433                         leds
     00008BA5  A$leds$435                         leds
     00008BA7  A$leds$436                         leds
     00008BA8  A$leds$440                         leds
     00008BA8  C$leds.c$149$2_1$330               leds
     00008BAA  A$leds$441                         leds
     00008BAB  A$leds$443                         leds
     00008BAD  A$leds$445                         leds
     00008BAF  A$leds$446                         leds
     00008BB0  A$leds$450                         leds
     00008BB0  C$leds.c$150$2_1$330               leds
     00008BB2  A$leds$451                         leds
     00008BB3  A$leds$453                         leds
     00008BB5  A$leds$455                         leds
     00008BB7  A$leds$456                         leds
     00008BB8  A$leds$460                         leds
     00008BB8  C$leds.c$151$2_1$330               leds
     00008BBA  A$leds$461                         leds
     00008BBB  A$leds$463                         leds
ASxxxx Linker V03.00 + NoICE + sdld,  page 43.
Hexadecimal  [32-Bits]

Area                                    Addr        Size        Decimal Bytes (Attributes)
--------------------------------        ----        ----        ------- ----- ------------
CODE                                0000810D    00001FDA =        8154. bytes (REL,CON)

      Value  Global                              Global Defined In Module
      -----  --------------------------------   ------------------------
     00008BBD  A$leds$465                         leds
     00008BBF  A$leds$466                         leds
     00008BC0  A$leds$470                         leds
     00008BC0  C$leds.c$152$2_1$330               leds
     00008BC2  A$leds$472                         leds
     00008BC4  A$leds$474                         leds
     00008BC6  A$leds$478                         leds
     00008BC6  C$leds.c$153$2_1$330               leds
     00008BC8  A$leds$479                         leds
     00008BC9  A$leds$481                         leds
     00008BCB  A$leds$483                         leds
     00008BCD  A$leds$484                         leds
     00008BCE  A$leds$490                         leds
     00008BD0  A$leds$493                         leds
     00008BD0  C$leds.c$155$1_1$327               leds
     00008BD0  XG$SetLedRaw$0$0                   leds
     00008BD1  A$leds$507                         leds
     00008BD1  C$leds.c$158$1_1$332               leds
     00008BD1  C$leds.c$161$1_0$332               leds
     00008BD1  G$GetLedState$0$0                  leds
     00008BD1  _GetLedState                       leds
     00008BD3  A$leds$509                         leds
     00008BD4  A$leds$510                         leds
     00008BD5  A$leds$511                         leds
     00008BD6  A$leds$512                         leds
     00008BD8  A$leds$514                         leds
     00008BD9  A$leds$515                         leds
     00008BDA  A$leds$516                         leds
     00008BDC  A$leds$519                         leds
     00008BDD  A$leds$520                         leds
     00008BE0  A$leds$521                         leds
     00008BE1  A$leds$522                         leds
     00008BE2  A$leds$523                         leds
     00008BE5  A$leds$524                         leds
     00008BE6  A$leds$526                         leds
     00008BE7  A$leds$527                         leds
     00008BE9  A$leds$528                         leds
     00008BEC  A$leds$531                         leds
     00008BED  A$leds$532                         leds
     00008BEE  A$leds$534                         leds
     00008BF1  A$leds$538                         leds
     00008BF2  A$leds$543                         leds
     00008BF3  A$leds$552                         leds
     00008BF3  C$leds.c$162$1_0$332               leds
     00008BF3  XG$GetLedState$0$0                 leds
     00008BF4  A$leds$566                         leds
     00008BF4  C$leds.c$165$1_0$334               leds
     00008BF4  C$leds.c$167$2_0$334               leds
     00008BF4  G$SetLedState$0$0                  leds
     00008BF4  _SetLedState                       leds
     00008BF5  A$leds$567                         leds
ASxxxx Linker V03.00 + NoICE + sdld,  page 44.
Hexadecimal  [32-Bits]

Area                                    Addr        Size        Decimal Bytes (Attributes)
--------------------------------        ----        ----        ------- ----- ------------
CODE                                0000810D    00001FDA =        8154. bytes (REL,CON)

      Value  Global                              Global Defined In Module
      -----  --------------------------------   ------------------------
     00008BF6  A$leds$571                         leds
     00008BF6  C$leds.c$168$1_0$334               leds
     00008BF8  A$leds$573                         leds
     00008BF9  A$leds$574                         leds
     00008BFB  A$leds$576                         leds
     00008BFC  A$leds$577                         leds
     00008BFD  A$leds$578                         leds
     00008BFF  A$leds$581                         leds
     00008C01  A$leds$582                         leds
     00008C03  A$leds$583                         leds
     00008C06  A$leds$586                         leds
     00008C07  A$leds$587                         leds
     00008C0A  A$leds$588                         leds
     00008C0B  A$leds$589                         leds
     00008C0C  A$leds$590                         leds
     00008C0F  A$leds$591                         leds
     00008C10  A$leds$593                         leds
     00008C13  A$leds$595                         leds
     00008C16  A$leds$601                         leds
     00008C16  C$leds.c$169$1_0$334               leds
     00008C17  A$leds$602                         leds
     00008C18  A$leds$604                         leds
     00008C1B  A$leds$605                         leds
     00008C1C  A$leds$606                         leds
     00008C1D  A$leds$607                         leds
     00008C20  A$leds$608                         leds
     00008C21  A$leds$610                         leds
     00008C24  A$leds$618                         leds
     00008C24  C$leds.c$170$1_0$334               leds
     00008C24  XG$SetLedState$0$0                 leds
     00008C25  A$adc$89                           adc
     00008C25  C$adc.c$65$0_0$320                 adc
     00008C25  Fadc$tim1Init$0$0                  adc
     00008C27  A$adc$93                           adc
     00008C27  C$adc.c$69$1_0$320                 adc
     00008C2B  A$adc$97                           adc
     00008C2B  C$adc.c$70$1_0$320                 adc
     00008C2F  A$adc$102                          adc
     00008C2F  C$adc.c$74$1_0$320                 adc
     00008C32  A$adc$105                          adc
     00008C34  A$adc$107                          adc
     00008C35  A$adc$108                          adc
     00008C37  A$adc$110                          adc
     00008C39  A$adc$111                          adc
     00008C3B  A$adc$112                          adc
     00008C3D  A$adc$113                          adc
     00008C3F  A$adc$115                          adc
     00008C42  A$adc$116                          adc
     00008C44  A$adc$117                          adc
     00008C46  A$adc$118                          adc
     00008C48  A$adc$120                          adc
ASxxxx Linker V03.00 + NoICE + sdld,  page 45.
Hexadecimal  [32-Bits]

Area                                    Addr        Size        Decimal Bytes (Attributes)
--------------------------------        ----        ----        ------- ----- ------------
CODE                                0000810D    00001FDA =        8154. bytes (REL,CON)

      Value  Global                              Global Defined In Module
      -----  --------------------------------   ------------------------
     00008C4B  A$adc$123                          adc
     00008C4C  A$adc$124                          adc
     00008C4D  A$adc$125                          adc
     00008C4F  A$adc$127                          adc
     00008C50  A$adc$128                          adc
     00008C52  A$adc$130                          adc
     00008C54  A$adc$131                          adc
     00008C55  A$adc$132                          adc
     00008C57  A$adc$133                          adc
     00008C58  A$adc$135                          adc
     00008C5B  A$adc$136                          adc
     00008C5D  A$adc$138                          adc
     00008C5F  A$adc$143                          adc
     00008C5F  C$adc.c$75$1_0$320                 adc
     00008C61  A$adc$145                          adc
     00008C62  A$adc$146                          adc
     00008C63  A$adc$147                          adc
     00008C64  A$adc$149                          adc
     00008C65  A$adc$153                          adc
     00008C68  A$adc$158                          adc
     00008C68  C$adc.c$76$1_0$320                 adc
     00008C6A  A$adc$160                          adc
     00008C6D  A$adc$164                          adc
     00008C6D  C$adc.c$77$1_0$320                 adc
     00008C70  A$adc$166                          adc
     00008C72  A$adc$168                          adc
     00008C75  A$adc$172                          adc
     00008C75  C$adc.c$78$1_0$320                 adc
     00008C78  A$adc$174                          adc
     00008C7A  A$adc$176                          adc
     00008C7D  A$adc$182                          adc
     00008C7F  A$adc$185                          adc
     00008C7F  C$adc.c$79$1_0$320                 adc
     00008C7F  XFadc$tim1Init$0$0                 adc
     00008C80  A$adc$199                          adc
     00008C80  C$adc.c$90$1_0$322                 adc
     00008C80  C$adc.c$92$1_0$322                 adc
     00008C80  G$adcInit$0$0                      adc
     00008C80  _adcInit                           adc
     00008C81  A$adc$200                          adc
     00008C84  A$adc$206                          adc
     00008C84  C$adc.c$93$1_0$322                 adc
     00008C87  A$adc$207                          adc
     00008C8A  A$adc$213                          adc
     00008C8A  C$adc.c$94$1_0$322                 adc
     00008C8D  A$adc$214                          adc
     00008C90  A$adc$218                          adc
     00008C90  C$adc.c$95$1_0$322                 adc
     00008C94  A$adc$222                          adc
     00008C94  C$adc.c$97$1_0$322                 adc
     00008C98  A$adc$226                          adc
ASxxxx Linker V03.00 + NoICE + sdld,  page 46.
Hexadecimal  [32-Bits]

Area                                    Addr        Size        Decimal Bytes (Attributes)
--------------------------------        ----        ----        ------- ----- ------------
CODE                                0000810D    00001FDA =        8154. bytes (REL,CON)

      Value  Global                              Global Defined In Module
      -----  --------------------------------   ------------------------
     00008C98  C$adc.c$100$1_0$322                adc
     00008C9B  A$adc$228                          adc
     00008C9D  A$adc$230                          adc
     00008CA0  A$adc$235                          adc
     00008CA0  C$adc.c$102$1_0$322                adc
     00008CA3  A$adc$239                          adc
     00008CA4  A$adc$240                          adc
     00008CA5  A$adc$241                          adc
     00008CA6  A$adc$243                          adc
     00008CA8  A$adc$245                          adc
     00008CAB  A$adc$249                          adc
     00008CAB  C$adc.c$104$1_0$322                adc
     00008CAF  A$adc$253                          adc
     00008CAF  C$adc.c$106$1_0$322                adc
     00008CB3  A$adc$257                          adc
     00008CB3  C$adc.c$108$1_0$322                adc
     00008CB6  A$adc$259                          adc
     00008CB8  A$adc$261                          adc
     00008CBB  A$adc$265                          adc
     00008CBB  C$adc.c$110$1_0$322                adc
     00008CBE  A$adc$273                          adc
     00008CBE  C$adc.c$111$1_0$322                adc
     00008CBE  XG$adcInit$0$0                     adc
     00008CBF  A$adc$287                          adc
     00008CBF  C$adc.c$124$1_0$323                adc
     00008CBF  C$adc.c$126$1_0$323                adc
     00008CBF  Fadc$NextByte$0$0                  adc
     00008CC2  A$adc$288                          adc
     00008CC5  A$adc$289                          adc
     00008CC7  A$adc$290                          adc
     00008CCA  A$adc$292                          adc
     00008CCD  A$adc$296                          adc
     00008CCE  A$adc$298                          adc
     00008CD1  A$adc$303                          adc
     00008CD4  A$adc$305                          adc
     00008CD5  A$adc$312                          adc
     00008CD8  A$adc$316                          adc
     00008CD8  C$adc.c$128$1_0$323                adc
     00008CDB  A$adc$317                          adc
     00008CDD  A$adc$318                          adc
     00008CE0  A$adc$323                          adc
     00008CE0  C$adc.c$130$2_0$324                adc
     00008CE3  A$adc$329                          adc
     00008CE6  A$adc$330                          adc
     00008CE8  A$adc$331                          adc
     00008CEB  A$adc$333                          adc
     00008CEE  A$adc$339                          adc
     00008CEE  C$adc.c$131$3_0$325                adc
     00008CF2  A$adc$345                          adc
     00008CF2  C$adc.c$132$3_0$325                adc
     00008CF5  A$adc$346                          adc
ASxxxx Linker V03.00 + NoICE + sdld,  page 47.
Hexadecimal  [32-Bits]

Area                                    Addr        Size        Decimal Bytes (Attributes)
--------------------------------        ----        ----        ------- ----- ------------
CODE                                0000810D    00001FDA =        8154. bytes (REL,CON)

      Value  Global                              Global Defined In Module
      -----  --------------------------------   ------------------------
     00008CF8  A$adc$352                          adc
     00008CF8  C$adc.c$133$3_0$325                adc
     00008CFB  A$adc$353                          adc
     00008CFE  A$adc$355                          adc
     00008D01  A$adc$361                          adc
     00008D01  C$adc.c$135$3_0$326                adc
     00008D05  A$adc$367                          adc
     00008D05  C$adc.c$136$3_0$326                adc
     00008D08  A$adc$368                          adc
     00008D0B  A$adc$374                          adc
     00008D0B  C$adc.c$137$3_0$326                adc
     00008D0E  A$adc$375                          adc
     00008D11  A$adc$377                          adc
     00008D14  A$adc$383                          adc
     00008D14  C$adc.c$140$2_0$327                adc
     00008D17  A$adc$384                          adc
     00008D1B  A$adc$386                          adc
     00008D1E  A$adc$394                          adc
     00008D1E  C$adc.c$142$1_0$323                adc
     00008D1E  XFadc$NextByte$0$0                 adc
     00008D1F  A$adc$405                          adc
     00008D1F  C$adc.c$156$1_0$330                adc
     00008D1F  Fadc$NextChannel$0$0               adc
     00008D20  A$adc$412                          adc
     00008D20  C$adc.c$160$3_0$331                adc
     00008D23  A$adc$413                          adc
     00008D25  A$adc$414                          adc
     00008D27  A$adc$415                          adc
     00008D2A  A$adc$417                          adc
     00008D2D  A$adc$421                          adc
     00008D2E  A$adc$422                          adc
     00008D2F  A$adc$424                          adc
     00008D32  A$adc$429                          adc
     00008D35  A$adc$431                          adc
     00008D36  A$adc$433                          adc
     00008D37  A$adc$434                          adc
     00008D38  A$adc$435                          adc
     00008D39  A$adc$436                          adc
     00008D3B  A$adc$437                          adc
     00008D3C  A$adc$438                          adc
     00008D3D  A$adc$444                          adc
     00008D40  A$adc$448                          adc
     00008D40  C$adc.c$161$3_0$331                adc
     00008D43  A$adc$450                          adc
     00008D44  A$adc$451                          adc
     00008D45  A$adc$452                          adc
     00008D46  A$adc$453                          adc
     00008D48  A$adc$455                          adc
     00008D49  A$adc$456                          adc
     00008D4A  A$adc$457                          adc
     00008D4C  A$adc$460                          adc
ASxxxx Linker V03.00 + NoICE + sdld,  page 48.
Hexadecimal  [32-Bits]

Area                                    Addr        Size        Decimal Bytes (Attributes)
--------------------------------        ----        ----        ------- ----- ------------
CODE                                0000810D    00001FDA =        8154. bytes (REL,CON)

      Value  Global                              Global Defined In Module
      -----  --------------------------------   ------------------------
     00008D4F  A$adc$463                          adc
     00008D51  A$adc$465                          adc
     00008D52  A$adc$466                          adc
     00008D54  A$adc$467                          adc
     00008D55  A$adc$468                          adc
     00008D56  A$adc$469                          adc
     00008D57  A$adc$470                          adc
     00008D59  A$adc$471                          adc
     00008D5A  A$adc$473                          adc
     00008D5B  A$adc$474                          adc
     00008D5D  A$adc$475                          adc
     00008D60  A$adc$480                          adc
     00008D60  C$adc.c$163$4_0$332                adc
     00008D63  A$adc$486                          adc
     00008D64  A$adc$489                          adc
     00008D64  C$adc.c$166$2_0$330                adc
     00008D64  XFadc$NextChannel$0$0              adc
     00008D65  A$adc$500                          adc
     00008D65  C$adc.c$179$2_0$334                adc
     00008D65  Fadc$GetChannelNo$0$0              adc
     00008D67  A$adc$504                          adc
     00008D67  C$adc.c$180$2_0$334                adc
     00008D69  A$adc$508                          adc
     00008D6B  A$adc$515                          adc
     00008D6B  C$adc.c$183$3_0$336                adc
     00008D6C  A$adc$516                          adc
     00008D6D  A$adc$517                          adc
     00008D6F  A$adc$518                          adc
     00008D71  A$adc$520                          adc
     00008D72  A$adc$521                          adc
     00008D73  A$adc$522                          adc
     00008D75  A$adc$525                          adc
     00008D78  A$adc$528                          adc
     00008D7A  A$adc$530                          adc
     00008D7B  A$adc$531                          adc
     00008D7D  A$adc$532                          adc
     00008D7E  A$adc$533                          adc
     00008D7F  A$adc$534                          adc
     00008D80  A$adc$535                          adc
     00008D82  A$adc$536                          adc
     00008D83  A$adc$538                          adc
     00008D84  A$adc$539                          adc
     00008D86  A$adc$540                          adc
     00008D89  A$adc$545                          adc
     00008D89  C$adc.c$184$4_0$337                adc
     00008D8B  A$adc$551                          adc
     00008D8B  C$adc.c$182$2_0$335                adc
     00008D8D  A$adc$554                          adc
     00008D8F  A$adc$555                          adc
     00008D91  A$adc$556                          adc
     00008D93  A$adc$557                          adc
ASxxxx Linker V03.00 + NoICE + sdld,  page 49.
Hexadecimal  [32-Bits]

Area                                    Addr        Size        Decimal Bytes (Attributes)
--------------------------------        ----        ----        ------- ----- ------------
CODE                                0000810D    00001FDA =        8154. bytes (REL,CON)

      Value  Global                              Global Defined In Module
      -----  --------------------------------   ------------------------
     00008D96  A$adc$563                          adc
     00008D96  C$adc.c$187$1_0$334                adc
     00008D98  A$adc$570                          adc
     00008D9A  A$adc$573                          adc
     00008D9A  C$adc.c$188$1_0$334                adc
     00008D9A  XFadc$GetChannelNo$0$0             adc
     00008D9B  A$adc$584                          adc
     00008D9B  C$adc.c$246$1_0$339                adc
     00008D9B  G$adcIsr$0$0                       adc
     00008D9B  _adcIsr                            adc
     00008D9C  A$adc$588                          adc
     00008D9C  C$adc.c$250$1_0$339                adc
     00008D9F  A$adc$590                          adc
     00008DA1  A$adc$595                          adc
     00008DA1  C$adc.c$251$1_0$339                adc
     00008DA4  A$adc$597                          adc
     00008DA5  A$adc$598                          adc
     00008DA7  A$adc$599                          adc
     00008DAA  A$adc$604                          adc
     00008DAA  C$adc.c$252$2_0$340                adc
     00008DAD  A$adc$606                          adc
     00008DB0  A$adc$608                          adc
     00008DB1  A$adc$612                          adc
     00008DB1  C$adc.c$253$2_0$340                adc
     00008DB4  A$adc$618                          adc
     00008DB4  C$adc.c$255$1_0$339                adc
     00008DB7  A$adc$620                          adc
     00008DBA  A$adc$622                          adc
     00008DBB  A$adc$626                          adc
     00008DBB  C$adc.c$256$1_0$339                adc
     00008DBE  A$adc$630                          adc
     00008DBE  C$adc.c$260$1_0$339                adc
     00008DC0  A$adc$631                          adc
     00008DC2  A$adc$633                          adc
     00008DC5  A$adc$639                          adc
     00008DC6  A$adc$642                          adc
     00008DC6  C$adc.c$262$1_0$339                adc
     00008DC6  XG$adcIsr$0$0                      adc
     00008DC7  A$mmcsd$69                         mmcsd
     00008DC7  C$mmcsd.c$90$0_0$332               mmcsd
     00008DC7  G$SD_Init$0$0                      mmcsd
     00008DC7  _SD_Init                           mmcsd
     00008DC9  A$mmcsd$73                         mmcsd
     00008DC9  C$mmcsd.c$96$1_0$332               mmcsd
     00008DCC  A$mmcsd$77                         mmcsd
     00008DCC  C$mmcsd.c$99$1_0$332               mmcsd
     00008DCF  A$mmcsd$79                         mmcsd
     00008DD1  A$mmcsd$81                         mmcsd
     00008DD4  A$mmcsd$85                         mmcsd
     00008DD5  A$mmcsd$86                         mmcsd
     00008DD7  A$mmcsd$88                         mmcsd
ASxxxx Linker V03.00 + NoICE + sdld,  page 50.
Hexadecimal  [32-Bits]

Area                                    Addr        Size        Decimal Bytes (Attributes)
--------------------------------        ----        ----        ------- ----- ------------
CODE                                0000810D    00001FDA =        8154. bytes (REL,CON)

      Value  Global                              Global Defined In Module
      -----  --------------------------------   ------------------------
     00008DD9  A$mmcsd$89                         mmcsd
     00008DDB  A$mmcsd$95                         mmcsd
     00008DDB  C$mmcsd.c$106$3_0$334              mmcsd
     00008DDD  A$mmcsd$97                         mmcsd
     00008DE0  A$mmcsd$98                         mmcsd
     00008DE1  A$mmcsd$102                        mmcsd
     00008DE1  C$mmcsd.c$103$2_0$333              mmcsd
     00008DE3  A$mmcsd$103                        mmcsd
     00008DE4  A$mmcsd$104                        mmcsd
     00008DE6  A$mmcsd$105                        mmcsd
     00008DE8  A$mmcsd$106                        mmcsd
     00008DEA  A$mmcsd$107                        mmcsd
     00008DEB  A$mmcsd$108                        mmcsd
     00008DED  A$mmcsd$112                        mmcsd
     00008DF0  A$mmcsd$113                        mmcsd
     00008DF2  A$mmcsd$114                        mmcsd
     00008DF3  A$mmcsd$115                        mmcsd
     00008DF5  A$mmcsd$116                        mmcsd
     00008DF6  A$mmcsd$117                        mmcsd
     00008DF8  A$mmcsd$118                        mmcsd
     00008DFA  A$mmcsd$119                        mmcsd
     00008DFD  A$mmcsd$125                        mmcsd
     00008DFD  C$mmcsd.c$110$1_0$332              mmcsd
     00008E00  A$mmcsd$129                        mmcsd
     00008E00  C$mmcsd.c$116$1_0$332              mmcsd
     00008E01  A$mmcsd$135                        mmcsd
     00008E03  A$mmcsd$138                        mmcsd
     00008E03  C$mmcsd.c$117$1_0$332              mmcsd
     00008E03  XG$SD_Init$0$0                     mmcsd
     00008E04  A$mmcsd$149                        mmcsd
     00008E04  C$mmcsd.c$124$1_0$337              mmcsd
     00008E04  G$SD_Detect$0$0                    mmcsd
     00008E04  _SD_Detect                         mmcsd
     00008E05  A$mmcsd$153                        mmcsd
     00008E05  C$mmcsd.c$126$2_0$337              mmcsd
     00008E07  A$mmcsd$154                        mmcsd
     00008E09  A$mmcsd$158                        mmcsd
     00008E09  C$mmcsd.c$136$1_0$337              mmcsd
     00008E0B  A$mmcsd$164                        mmcsd
     00008E0D  A$mmcsd$167                        mmcsd
     00008E0D  C$mmcsd.c$138$1_0$337              mmcsd
     00008E0D  XG$SD_Detect$0$0                   mmcsd
     00008E0E  A$mmcsd$178                        mmcsd
     00008E0E  C$mmcsd.c$663$1_0$339              mmcsd
     00008E0E  G$SD_SendCmd$0$0                   mmcsd
     00008E0E  _SD_SendCmd                        mmcsd
     00008E10  A$mmcsd$183                        mmcsd
     00008E10  C$mmcsd.c$669$1_0$339              mmcsd
     00008E12  A$mmcsd$185                        mmcsd
     00008E14  A$mmcsd$187                        mmcsd
     00008E16  A$mmcsd$191                        mmcsd
ASxxxx Linker V03.00 + NoICE + sdld,  page 51.
Hexadecimal  [32-Bits]

Area                                    Addr        Size        Decimal Bytes (Attributes)
--------------------------------        ----        ----        ------- ----- ------------
CODE                                0000810D    00001FDA =        8154. bytes (REL,CON)

      Value  Global                              Global Defined In Module
      -----  --------------------------------   ------------------------
     00008E16  C$mmcsd.c$671$1_0$339              mmcsd
     00008E17  A$mmcsd$192                        mmcsd
     00008E18  A$mmcsd$193                        mmcsd
     00008E19  A$mmcsd$195                        mmcsd
     00008E1B  A$mmcsd$196                        mmcsd
     00008E1D  A$mmcsd$197                        mmcsd
     00008E1F  A$mmcsd$201                        mmcsd
     00008E20  A$mmcsd$205                        mmcsd
     00008E20  C$mmcsd.c$673$1_0$339              mmcsd
     00008E21  A$mmcsd$206                        mmcsd
     00008E24  A$mmcsd$208                        mmcsd
     00008E26  A$mmcsd$209                        mmcsd
     00008E27  A$mmcsd$210                        mmcsd
     00008E29  A$mmcsd$213                        mmcsd
     00008E2B  A$mmcsd$215                        mmcsd
     00008E2C  A$mmcsd$219                        mmcsd
     00008E2C  C$mmcsd.c$675$1_0$339              mmcsd
     00008E2D  A$mmcsd$220                        mmcsd
     00008E30  A$mmcsd$223                        mmcsd
     00008E32  A$mmcsd$225                        mmcsd
     00008E33  A$mmcsd$228                        mmcsd
     00008E35  A$mmcsd$230                        mmcsd
     00008E36  A$mmcsd$234                        mmcsd
     00008E36  C$mmcsd.c$677$1_0$339              mmcsd
     00008E37  A$mmcsd$235                        mmcsd
     00008E3A  A$mmcsd$238                        mmcsd
     00008E3C  A$mmcsd$240                        mmcsd
     00008E3D  A$mmcsd$244                        mmcsd
     00008E3D  C$mmcsd.c$679$1_0$339              mmcsd
     00008E3E  A$mmcsd$245                        mmcsd
     00008E41  A$mmcsd$247                        mmcsd
     00008E43  A$mmcsd$248                        mmcsd
     00008E44  A$mmcsd$252                        mmcsd
     00008E45  A$mmcsd$253                        mmcsd
     00008E47  A$mmcsd$256                        mmcsd
     00008E49  A$mmcsd$262                        mmcsd
     00008E49  C$mmcsd.c$683$3_0$341              mmcsd
     00008E4A  A$mmcsd$263                        mmcsd
     00008E4B  A$mmcsd$264                        mmcsd
     00008E4E  A$mmcsd$266                        mmcsd
     00008E4F  A$mmcsd$268                        mmcsd
     00008E51  A$mmcsd$269                        mmcsd
     00008E52  A$mmcsd$271                        mmcsd
     00008E55  A$mmcsd$272                        mmcsd
     00008E56  A$mmcsd$273                        mmcsd
     00008E58  A$mmcsd$277                        mmcsd
     00008E58  C$mmcsd.c$681$2_0$340              mmcsd
     00008E5A  A$mmcsd$278                        mmcsd
     00008E5B  A$mmcsd$279                        mmcsd
     00008E5D  A$mmcsd$280                        mmcsd
     00008E5F  A$mmcsd$281                        mmcsd
ASxxxx Linker V03.00 + NoICE + sdld,  page 52.
Hexadecimal  [32-Bits]

Area                                    Addr        Size        Decimal Bytes (Attributes)
--------------------------------        ----        ----        ------- ----- ------------
CODE                                0000810D    00001FDA =        8154. bytes (REL,CON)

      Value  Global                              Global Defined In Module
      -----  --------------------------------   ------------------------
     00008E61  A$mmcsd$285                        mmcsd
     00008E63  A$mmcsd$286                        mmcsd
     00008E66  A$mmcsd$287                        mmcsd
     00008E68  A$mmcsd$288                        mmcsd
     00008E6A  A$mmcsd$289                        mmcsd
     00008E6C  A$mmcsd$290                        mmcsd
     00008E6E  A$mmcsd$291                        mmcsd
     00008E70  A$mmcsd$292                        mmcsd
     00008E73  A$mmcsd$300                        mmcsd
     00008E75  A$mmcsd$303                        mmcsd
     00008E75  C$mmcsd.c$685$2_0$339              mmcsd
     00008E75  XG$SD_SendCmd$0$0                  mmcsd
     00008E76  A$mmcsd$314                        mmcsd
     00008E76  C$mmcsd.c$699$2_0$343              mmcsd
     00008E76  G$SD_GetDataResponse$0$0           mmcsd
     00008E76  _SD_GetDataResponse                mmcsd
     00008E78  A$mmcsd$318                        mmcsd
     00008E78  C$mmcsd.c$701$2_0$343              mmcsd
     00008E79  A$mmcsd$319                        mmcsd
     00008E7B  A$mmcsd$323                        mmcsd
     00008E7B  C$mmcsd.c$702$2_0$343              mmcsd
     00008E7D  A$mmcsd$327                        mmcsd
     00008E7D  C$mmcsd.c$704$1_0$343              mmcsd
     00008E7F  A$mmcsd$328                        mmcsd
     00008E81  A$mmcsd$333                        mmcsd
     00008E84  A$mmcsd$334                        mmcsd
     00008E86  A$mmcsd$335                        mmcsd
     00008E87  A$mmcsd$336                        mmcsd
     00008E89  A$mmcsd$337                        mmcsd
     00008E8A  A$mmcsd$338                        mmcsd
     00008E8C  A$mmcsd$339                        mmcsd
     00008E8E  A$mmcsd$340                        mmcsd
     00008E91  A$mmcsd$346                        mmcsd
     00008E91  C$mmcsd.c$707$2_0$344              mmcsd
     00008E94  A$mmcsd$351                        mmcsd
     00008E94  C$mmcsd.c$709$2_0$344              mmcsd
     00008E96  A$mmcsd$352                        mmcsd
     00008E98  A$mmcsd$356                        mmcsd
     00008E98  C$mmcsd.c$710$2_0$344              mmcsd
     00008E9A  A$mmcsd$357                        mmcsd
     00008E9C  A$mmcsd$358                        mmcsd
     00008E9E  A$mmcsd$359                        mmcsd
     00008EA1  A$mmcsd$363                        mmcsd
     00008EA3  A$mmcsd$364                        mmcsd
     00008EA5  A$mmcsd$365                        mmcsd
     00008EA7  A$mmcsd$366                        mmcsd
     00008EAA  A$mmcsd$370                        mmcsd
     00008EAC  A$mmcsd$371                        mmcsd
     00008EAE  A$mmcsd$372                        mmcsd
     00008EB0  A$mmcsd$373                        mmcsd
     00008EB3  A$mmcsd$377                        mmcsd
ASxxxx Linker V03.00 + NoICE + sdld,  page 53.
Hexadecimal  [32-Bits]

Area                                    Addr        Size        Decimal Bytes (Attributes)
--------------------------------        ----        ----        ------- ----- ------------
CODE                                0000810D    00001FDA =        8154. bytes (REL,CON)

      Value  Global                              Global Defined In Module
      -----  --------------------------------   ------------------------
     00008EB6  A$mmcsd$385                        mmcsd
     00008EB6  C$mmcsd.c$712$3_0$345              mmcsd
     00008EB6  C$mmcsd.c$714$4_0$346              mmcsd
     00008EB8  A$mmcsd$389                        mmcsd
     00008EB8  C$mmcsd.c$715$4_0$346              mmcsd
     00008EBB  A$mmcsd$397                        mmcsd
     00008EBB  C$mmcsd.c$717$3_0$345              mmcsd
     00008EBB  C$mmcsd.c$718$3_0$345              mmcsd
     00008EBD  A$mmcsd$398                        mmcsd
     00008EC0  A$mmcsd$406                        mmcsd
     00008EC0  C$mmcsd.c$719$3_0$345              mmcsd
     00008EC0  C$mmcsd.c$720$3_0$345              mmcsd
     00008EC2  A$mmcsd$407                        mmcsd
     00008EC5  A$mmcsd$415                        mmcsd
     00008EC5  C$mmcsd.c$721$3_0$345              mmcsd
     00008EC5  C$mmcsd.c$723$4_0$347              mmcsd
     00008EC7  A$mmcsd$423                        mmcsd
     00008EC7  C$mmcsd.c$726$2_0$344              mmcsd
     00008EC7  C$mmcsd.c$728$2_0$344              mmcsd
     00008EC9  A$mmcsd$424                        mmcsd
     00008ECB  A$mmcsd$425                        mmcsd
     00008ECE  A$mmcsd$431                        mmcsd
     00008ECE  C$mmcsd.c$731$2_0$344              mmcsd
     00008ED0  A$mmcsd$432                        mmcsd
     00008ED1  A$mmcsd$433                        mmcsd
     00008ED3  A$mmcsd$434                        mmcsd
     00008ED5  A$mmcsd$435                        mmcsd
     00008ED7  A$mmcsd$436                        mmcsd
     00008ED8  A$mmcsd$437                        mmcsd
     00008EDA  A$mmcsd$440                        mmcsd
     00008EDD  A$mmcsd$446                        mmcsd
     00008EDD  C$mmcsd.c$735$1_0$343              mmcsd
     00008EE0  A$mmcsd$448                        mmcsd
     00008EE1  A$mmcsd$449                        mmcsd
     00008EE3  A$mmcsd$450                        mmcsd
     00008EE6  A$mmcsd$455                        mmcsd
     00008EE6  C$mmcsd.c$738$1_0$343              mmcsd
     00008EE8  A$mmcsd$461                        mmcsd
     00008EEA  A$mmcsd$464                        mmcsd
     00008EEA  C$mmcsd.c$739$1_0$343              mmcsd
     00008EEA  XG$SD_GetDataResponse$0$0          mmcsd
     00008EEB  A$mmcsd$475                        mmcsd
     00008EEB  C$mmcsd.c$748$1_0$349              mmcsd
     00008EEB  G$SD_GetResponse$0$0               mmcsd
     00008EEB  _SD_GetResponse                    mmcsd
     00008EED  A$mmcsd$479                        mmcsd
     00008EED  C$mmcsd.c$750$2_0$349              mmcsd
     00008EF1  A$mmcsd$480                        mmcsd
     00008EF2  A$mmcsd$484                        mmcsd
     00008EF2  C$mmcsd.c$753$1_0$349              mmcsd
     00008EF4  A$mmcsd$488                        mmcsd
ASxxxx Linker V03.00 + NoICE + sdld,  page 54.
Hexadecimal  [32-Bits]

Area                                    Addr        Size        Decimal Bytes (Attributes)
--------------------------------        ----        ----        ------- ----- ------------
CODE                                0000810D    00001FDA =        8154. bytes (REL,CON)

      Value  Global                              Global Defined In Module
      -----  --------------------------------   ------------------------
     00008EF5  A$mmcsd$489                        mmcsd
     00008EF8  A$mmcsd$490                        mmcsd
     00008EF9  A$mmcsd$492                        mmcsd
     00008EFB  A$mmcsd$493                        mmcsd
     00008EFD  A$mmcsd$494                        mmcsd
     00008F00  A$mmcsd$498                        mmcsd
     00008F02  A$mmcsd$499                        mmcsd
     00008F04  A$mmcsd$500                        mmcsd
     00008F05  A$mmcsd$501                        mmcsd
     00008F07  A$mmcsd$502                        mmcsd
     00008F0A  A$mmcsd$507                        mmcsd
     00008F0A  C$mmcsd.c$755$2_0$350              mmcsd
     00008F0C  A$mmcsd$508                        mmcsd
     00008F10  A$mmcsd$509                        mmcsd
     00008F12  A$mmcsd$510                        mmcsd
     00008F14  A$mmcsd$511                        mmcsd
     00008F15  A$mmcsd$514                        mmcsd
     00008F18  A$mmcsd$518                        mmcsd
     00008F1A  A$mmcsd$522                        mmcsd
     00008F1A  C$mmcsd.c$757$1_0$349              mmcsd
     00008F1C  A$mmcsd$523                        mmcsd
     00008F1E  A$mmcsd$524                        mmcsd
     00008F1F  A$mmcsd$525                        mmcsd
     00008F21  A$mmcsd$527                        mmcsd
     00008F24  A$mmcsd$532                        mmcsd
     00008F24  C$mmcsd.c$760$2_0$351              mmcsd
     00008F26  A$mmcsd$533                        mmcsd
     00008F29  A$mmcsd$539                        mmcsd
     00008F29  C$mmcsd.c$765$2_0$352              mmcsd
     00008F2A  A$mmcsd$545                        mmcsd
     00008F2C  A$mmcsd$548                        mmcsd
     00008F2C  C$mmcsd.c$767$1_0$349              mmcsd
     00008F2C  XG$SD_GetResponse$0$0              mmcsd
     00008F2D  A$mmcsd$562                        mmcsd
     00008F2D  C$mmcsd.c$772$1_0$354              mmcsd
     00008F2D  G$SD_GetResponseVal$0$0            mmcsd
     00008F2D  _SD_GetResponseVal                 mmcsd
     00008F2F  A$mmcsd$563                        mmcsd
     00008F30  A$mmcsd$565                        mmcsd
     00008F33  A$mmcsd$566                        mmcsd
     00008F35  A$mmcsd$570                        mmcsd
     00008F35  C$mmcsd.c$777$1_0$354              mmcsd
     00008F37  A$mmcsd$572                        mmcsd
     00008F38  A$mmcsd$573                        mmcsd
     00008F39  A$mmcsd$577                        mmcsd
     00008F39  C$mmcsd.c$775$1_0$354              mmcsd
     00008F3A  A$mmcsd$578                        mmcsd
     00008F3C  A$mmcsd$579                        mmcsd
     00008F3F  A$mmcsd$581                        mmcsd
     00008F42  A$mmcsd$587                        mmcsd
     00008F42  C$mmcsd.c$777$2_0$355              mmcsd
ASxxxx Linker V03.00 + NoICE + sdld,  page 55.
Hexadecimal  [32-Bits]

Area                                    Addr        Size        Decimal Bytes (Attributes)
--------------------------------        ----        ----        ------- ----- ------------
CODE                                0000810D    00001FDA =        8154. bytes (REL,CON)

      Value  Global                              Global Defined In Module
      -----  --------------------------------   ------------------------
     00008F44  A$mmcsd$588                        mmcsd
     00008F46  A$mmcsd$590                        mmcsd
     00008F48  A$mmcsd$592                        mmcsd
     00008F4B  A$mmcsd$598                        mmcsd
     00008F4B  C$mmcsd.c$779$2_0$356              mmcsd
     00008F4D  A$mmcsd$599                        mmcsd
     00008F4F  A$mmcsd$601                        mmcsd
     00008F51  A$mmcsd$607                        mmcsd
     00008F51  C$mmcsd.c$782$1_0$354              mmcsd
     00008F53  A$mmcsd$609                        mmcsd
     00008F54  A$mmcsd$610                        mmcsd
     00008F57  A$mmcsd$611                        mmcsd
     00008F58  A$mmcsd$613                        mmcsd
     00008F59  A$mmcsd$615                        mmcsd
     00008F5A  A$mmcsd$617                        mmcsd
     00008F5C  A$mmcsd$621                        mmcsd
     00008F5C  C$mmcsd.c$783$1_0$354              mmcsd
     00008F5E  A$mmcsd$623                        mmcsd
     00008F5F  A$mmcsd$624                        mmcsd
     00008F62  A$mmcsd$625                        mmcsd
     00008F63  A$mmcsd$627                        mmcsd
     00008F64  A$mmcsd$629                        mmcsd
     00008F65  A$mmcsd$631                        mmcsd
     00008F67  A$mmcsd$635                        mmcsd
     00008F67  C$mmcsd.c$784$1_0$354              mmcsd
     00008F69  A$mmcsd$637                        mmcsd
     00008F6A  A$mmcsd$638                        mmcsd
     00008F6D  A$mmcsd$639                        mmcsd
     00008F6E  A$mmcsd$641                        mmcsd
     00008F6F  A$mmcsd$643                        mmcsd
     00008F70  A$mmcsd$645                        mmcsd
     00008F72  A$mmcsd$649                        mmcsd
     00008F72  C$mmcsd.c$785$1_0$354              mmcsd
     00008F74  A$mmcsd$651                        mmcsd
     00008F75  A$mmcsd$652                        mmcsd
     00008F78  A$mmcsd$653                        mmcsd
     00008F79  A$mmcsd$655                        mmcsd
     00008F7A  A$mmcsd$657                        mmcsd
     00008F7B  A$mmcsd$659                        mmcsd
     00008F7D  A$mmcsd$663                        mmcsd
     00008F7D  C$mmcsd.c$786$1_0$354              mmcsd
     00008F7F  A$mmcsd$665                        mmcsd
     00008F80  A$mmcsd$666                        mmcsd
     00008F83  A$mmcsd$667                        mmcsd
     00008F84  A$mmcsd$669                        mmcsd
     00008F85  A$mmcsd$677                        mmcsd
     00008F85  C$mmcsd.c$787$1_0$354              mmcsd
     00008F85  XG$SD_GetResponseVal$0$0           mmcsd
     00008F86  A$mmcsd$688                        mmcsd
     00008F86  C$mmcsd.c$871$1_0$358              mmcsd
     00008F86  G$SD_GoIdleState$0$0               mmcsd
ASxxxx Linker V03.00 + NoICE + sdld,  page 56.
Hexadecimal  [32-Bits]

Area                                    Addr        Size        Decimal Bytes (Attributes)
--------------------------------        ----        ----        ------- ----- ------------
CODE                                0000810D    00001FDA =        8154. bytes (REL,CON)

      Value  Global                              Global Defined In Module
      -----  --------------------------------   ------------------------
     00008F86  _SD_GoIdleState                    mmcsd
     00008F88  A$mmcsd$693                        mmcsd
     00008F88  C$mmcsd.c$874$2_0$358              mmcsd
     00008F8A  A$mmcsd$695                        mmcsd
     00008F8B  A$mmcsd$696                        mmcsd
     00008F8C  A$mmcsd$697                        mmcsd
     00008F8D  A$mmcsd$699                        mmcsd
     00008F8E  A$mmcsd$701                        mmcsd
     00008F8F  A$mmcsd$702                        mmcsd
     00008F92  A$mmcsd$704                        mmcsd
     00008F93  A$mmcsd$706                        mmcsd
     00008F94  A$mmcsd$707                        mmcsd
     00008F97  A$mmcsd$709                        mmcsd
     00008F98  A$mmcsd$711                        mmcsd
     00008F99  A$mmcsd$712                        mmcsd
     00008F9C  A$mmcsd$714                        mmcsd
     00008F9D  A$mmcsd$716                        mmcsd
     00008F9E  A$mmcsd$717                        mmcsd
     00008FA1  A$mmcsd$719                        mmcsd
     00008FA2  A$mmcsd$723                        mmcsd
     00008FA2  C$mmcsd.c$876$1_0$358              mmcsd
     00008FA5  A$mmcsd$725                        mmcsd
     00008FA7  A$mmcsd$727                        mmcsd
     00008FAA  A$mmcsd$731                        mmcsd
     00008FAA  C$mmcsd.c$879$1_0$358              mmcsd
     00008FAC  A$mmcsd$733                        mmcsd
     00008FAD  A$mmcsd$734                        mmcsd
     00008FAE  A$mmcsd$735                        mmcsd
     00008FAF  A$mmcsd$736                        mmcsd
     00008FB0  A$mmcsd$738                        mmcsd
     00008FB2  A$mmcsd$740                        mmcsd
     00008FB5  A$mmcsd$741                        mmcsd
     00008FB7  A$mmcsd$745                        mmcsd
     00008FB7  C$mmcsd.c$882$1_0$358              mmcsd
     00008FB9  A$mmcsd$747                        mmcsd
     00008FBC  A$mmcsd$748                        mmcsd
     00008FBE  A$mmcsd$750                        mmcsd
     00008FBF  A$mmcsd$751                        mmcsd
     00008FC1  A$mmcsd$752                        mmcsd
     00008FC4  A$mmcsd$757                        mmcsd
     00008FC4  C$mmcsd.c$885$2_0$359              mmcsd
     00008FC6  A$mmcsd$758                        mmcsd
     00008FC9  A$mmcsd$764                        mmcsd
     00008FC9  C$mmcsd.c$888$1_0$358              mmcsd
     00008FCB  A$mmcsd$766                        mmcsd
     00008FCD  A$mmcsd$767                        mmcsd
     00008FCF  A$mmcsd$768                        mmcsd
     00008FD0  A$mmcsd$769                        mmcsd
     00008FD1  A$mmcsd$771                        mmcsd
     00008FD3  A$mmcsd$773                        mmcsd
     00008FD6  A$mmcsd$774                        mmcsd
ASxxxx Linker V03.00 + NoICE + sdld,  page 57.
Hexadecimal  [32-Bits]

Area                                    Addr        Size        Decimal Bytes (Attributes)
--------------------------------        ----        ----        ------- ----- ------------
CODE                                0000810D    00001FDA =        8154. bytes (REL,CON)

      Value  Global                              Global Defined In Module
      -----  --------------------------------   ------------------------
     00008FD8  A$mmcsd$780                        mmcsd
     00008FD8  C$mmcsd.c$889$1_0$358              mmcsd
     00008FDA  A$mmcsd$782                        mmcsd
     00008FDB  A$mmcsd$783                        mmcsd
     00008FDC  A$mmcsd$784                        mmcsd
     00008FDD  A$mmcsd$785                        mmcsd
     00008FDE  A$mmcsd$787                        mmcsd
     00008FE1  A$mmcsd$788                        mmcsd
     00008FE3  A$mmcsd$792                        mmcsd
     00008FE3  C$mmcsd.c$890$1_0$358              mmcsd
     00008FE5  A$mmcsd$794                        mmcsd
     00008FE6  A$mmcsd$795                        mmcsd
     00008FE8  A$mmcsd$796                        mmcsd
     00008FEB  A$mmcsd$798                        mmcsd
     00008FEE  A$mmcsd$805                        mmcsd
     00008FEE  C$mmcsd.c$892$2_0$360              mmcsd
     00008FF0  A$mmcsd$807                        mmcsd
     00008FF1  A$mmcsd$808                        mmcsd
     00008FF3  A$mmcsd$809                        mmcsd
     00008FF6  A$mmcsd$811                        mmcsd
     00008FF9  A$mmcsd$816                        mmcsd
     00008FFB  A$mmcsd$818                        mmcsd
     00008FFD  A$mmcsd$819                        mmcsd
     00008FFF  A$mmcsd$820                        mmcsd
     00009002  A$mmcsd$822                        mmcsd
     00009005  A$mmcsd$834                        mmcsd
     00009005  C$mmcsd.c$895$4_0$362              mmcsd
     00009005  C$mmcsd.c$896$4_0$362              mmcsd
     00009007  A$mmcsd$836                        mmcsd
     00009008  A$mmcsd$837                        mmcsd
     00009009  A$mmcsd$838                        mmcsd
     0000900A  A$mmcsd$839                        mmcsd
     0000900B  A$mmcsd$841                        mmcsd
     0000900D  A$mmcsd$843                        mmcsd
     00009010  A$mmcsd$844                        mmcsd
     00009012  A$mmcsd$849                        mmcsd
     00009012  C$mmcsd.c$897$4_0$362              mmcsd
     00009014  A$mmcsd$851                        mmcsd
     00009015  A$mmcsd$852                        mmcsd
     00009016  A$mmcsd$853                        mmcsd
     00009017  A$mmcsd$854                        mmcsd
     00009018  A$mmcsd$856                        mmcsd
     0000901B  A$mmcsd$857                        mmcsd
     0000901D  A$mmcsd$861                        mmcsd
     0000901D  C$mmcsd.c$898$4_0$362              mmcsd
     0000901F  A$mmcsd$862                        mmcsd
     00009020  A$mmcsd$863                        mmcsd
     00009021  A$mmcsd$864                        mmcsd
     00009023  A$mmcsd$866                        mmcsd
     00009026  A$mmcsd$867                        mmcsd
     00009028  A$mmcsd$871                        mmcsd
ASxxxx Linker V03.00 + NoICE + sdld,  page 58.
Hexadecimal  [32-Bits]

Area                                    Addr        Size        Decimal Bytes (Attributes)
--------------------------------        ----        ----        ------- ----- ------------
CODE                                0000810D    00001FDA =        8154. bytes (REL,CON)

      Value  Global                              Global Defined In Module
      -----  --------------------------------   ------------------------
     00009028  C$mmcsd.c$899$4_0$362              mmcsd
     0000902A  A$mmcsd$873                        mmcsd
     0000902B  A$mmcsd$874                        mmcsd
     0000902C  A$mmcsd$875                        mmcsd
     0000902E  A$mmcsd$876                        mmcsd
     00009030  A$mmcsd$878                        mmcsd
     00009032  A$mmcsd$880                        mmcsd
     00009035  A$mmcsd$881                        mmcsd
     00009037  A$mmcsd$885                        mmcsd
     00009037  C$mmcsd.c$900$4_0$362              mmcsd
     00009039  A$mmcsd$886                        mmcsd
     0000903B  A$mmcsd$887                        mmcsd
     0000903C  A$mmcsd$888                        mmcsd
     0000903D  A$mmcsd$890                        mmcsd
     00009040  A$mmcsd$891                        mmcsd
     00009042  A$mmcsd$896                        mmcsd
     00009042  C$mmcsd.c$901$4_0$362              mmcsd
     00009043  A$mmcsd$897                        mmcsd
     00009044  A$mmcsd$899                        mmcsd
     00009046  A$mmcsd$901                        mmcsd
     00009047  A$mmcsd$903                        mmcsd
     0000904A  A$mmcsd$904                        mmcsd
     0000904C  A$mmcsd$908                        mmcsd
     0000904C  C$mmcsd.c$902$3_0$361              mmcsd
     0000904E  A$mmcsd$910                        mmcsd
     0000904F  A$mmcsd$911                        mmcsd
     00009051  A$mmcsd$912                        mmcsd
     00009054  A$mmcsd$917                        mmcsd
     00009054  C$mmcsd.c$904$3_0$361              mmcsd
     00009056  A$mmcsd$919                        mmcsd
     00009057  A$mmcsd$920                        mmcsd
     00009058  A$mmcsd$921                        mmcsd
     00009059  A$mmcsd$922                        mmcsd
     0000905A  A$mmcsd$924                        mmcsd
     0000905C  A$mmcsd$926                        mmcsd
     0000905F  A$mmcsd$927                        mmcsd
     00009061  A$mmcsd$933                        mmcsd
     00009061  C$mmcsd.c$905$3_0$361              mmcsd
     00009063  A$mmcsd$935                        mmcsd
     00009064  A$mmcsd$936                        mmcsd
     00009065  A$mmcsd$937                        mmcsd
     00009066  A$mmcsd$938                        mmcsd
     00009067  A$mmcsd$940                        mmcsd
     0000906A  A$mmcsd$941                        mmcsd
     0000906C  A$mmcsd$945                        mmcsd
     0000906C  C$mmcsd.c$906$3_0$361              mmcsd
     0000906D  A$mmcsd$946                        mmcsd
     00009070  A$mmcsd$952                        mmcsd
     00009070  C$mmcsd.c$909$3_0$363              mmcsd
     00009072  A$mmcsd$953                        mmcsd
     00009075  A$mmcsd$965                        mmcsd
ASxxxx Linker V03.00 + NoICE + sdld,  page 59.
Hexadecimal  [32-Bits]

Area                                    Addr        Size        Decimal Bytes (Attributes)
--------------------------------        ----        ----        ------- ----- ------------
CODE                                0000810D    00001FDA =        8154. bytes (REL,CON)

      Value  Global                              Global Defined In Module
      -----  --------------------------------   ------------------------
     00009075  C$mmcsd.c$914$1_0$358              mmcsd
     00009075  C$mmcsd.c$915$3_0$365              mmcsd
     00009077  A$mmcsd$967                        mmcsd
     00009078  A$mmcsd$968                        mmcsd
     00009079  A$mmcsd$969                        mmcsd
     0000907A  A$mmcsd$970                        mmcsd
     0000907B  A$mmcsd$972                        mmcsd
     0000907D  A$mmcsd$974                        mmcsd
     00009080  A$mmcsd$975                        mmcsd
     00009082  A$mmcsd$980                        mmcsd
     00009082  C$mmcsd.c$916$3_0$365              mmcsd
     00009084  A$mmcsd$982                        mmcsd
     00009085  A$mmcsd$983                        mmcsd
     00009086  A$mmcsd$984                        mmcsd
     00009087  A$mmcsd$985                        mmcsd
     00009088  A$mmcsd$987                        mmcsd
     0000908B  A$mmcsd$988                        mmcsd
     0000908D  A$mmcsd$992                        mmcsd
     0000908D  C$mmcsd.c$917$3_0$365              mmcsd
     0000908F  A$mmcsd$993                        mmcsd
     00009091  A$mmcsd$994                        mmcsd
     00009092  A$mmcsd$995                        mmcsd
     00009093  A$mmcsd$997                        mmcsd
     00009096  A$mmcsd$998                        mmcsd
     00009098  A$mmcsd$1002                       mmcsd
     00009098  C$mmcsd.c$918$3_0$365              mmcsd
     0000909A  A$mmcsd$1004                       mmcsd
     0000909B  A$mmcsd$1005                       mmcsd
     0000909C  A$mmcsd$1006                       mmcsd
     0000909D  A$mmcsd$1007                       mmcsd
     0000909E  A$mmcsd$1009                       mmcsd
     000090A0  A$mmcsd$1011                       mmcsd
     000090A3  A$mmcsd$1012                       mmcsd
     000090A5  A$mmcsd$1017                       mmcsd
     000090A5  C$mmcsd.c$919$3_0$365              mmcsd
     000090A7  A$mmcsd$1019                       mmcsd
     000090A8  A$mmcsd$1020                       mmcsd
     000090A9  A$mmcsd$1021                       mmcsd
     000090AA  A$mmcsd$1022                       mmcsd
     000090AB  A$mmcsd$1024                       mmcsd
     000090AE  A$mmcsd$1025                       mmcsd
     000090B0  A$mmcsd$1029                       mmcsd
     000090B0  C$mmcsd.c$920$3_0$365              mmcsd
     000090B2  A$mmcsd$1030                       mmcsd
     000090B4  A$mmcsd$1031                       mmcsd
     000090B5  A$mmcsd$1032                       mmcsd
     000090B6  A$mmcsd$1034                       mmcsd
     000090B9  A$mmcsd$1035                       mmcsd
     000090BB  A$mmcsd$1039                       mmcsd
     000090BB  C$mmcsd.c$921$2_0$364              mmcsd
     000090BD  A$mmcsd$1041                       mmcsd
ASxxxx Linker V03.00 + NoICE + sdld,  page 60.
Hexadecimal  [32-Bits]

Area                                    Addr        Size        Decimal Bytes (Attributes)
--------------------------------        ----        ----        ------- ----- ------------
CODE                                0000810D    00001FDA =        8154. bytes (REL,CON)

      Value  Global                              Global Defined In Module
      -----  --------------------------------   ------------------------
     000090BE  A$mmcsd$1042                       mmcsd
     000090C0  A$mmcsd$1043                       mmcsd
     000090C3  A$mmcsd$1048                       mmcsd
     000090C3  C$mmcsd.c$926$1_0$358              mmcsd
     000090C6  A$mmcsd$1050                       mmcsd
     000090C8  A$mmcsd$1052                       mmcsd
     000090CB  A$mmcsd$1056                       mmcsd
     000090CB  C$mmcsd.c$929$1_0$358              mmcsd
     000090CD  A$mmcsd$1058                       mmcsd
     000090D0  A$mmcsd$1059                       mmcsd
     000090D1  A$mmcsd$1063                       mmcsd
     000090D1  C$mmcsd.c$931$1_0$358              mmcsd
     000090D2  A$mmcsd$1069                       mmcsd
     000090D4  A$mmcsd$1072                       mmcsd
     000090D4  C$mmcsd.c$932$1_0$358              mmcsd
     000090D4  XG$SD_GoIdleState$0$0              mmcsd
     000090D5  A$mmcsd$1087                       mmcsd
     000090D5  C$mmcsd.c$941$1_0$367              mmcsd
     000090D5  C$mmcsd.c$944$1_0$367              mmcsd
     000090D5  G$SD_WriteByte$0$0                 mmcsd
     000090D5  _SD_WriteByte                      mmcsd
     000090D8  A$mmcsd$1091                       mmcsd
     000090D8  C$mmcsd.c$948$1_0$367              mmcsd
     000090DB  A$mmcsd$1092                       mmcsd
     000090DD  A$mmcsd$1093                       mmcsd
     000090DE  A$mmcsd$1098                       mmcsd
     000090DE  C$mmcsd.c$951$1_0$367              mmcsd
     000090E1  A$mmcsd$1102                       mmcsd
     000090E1  C$mmcsd.c$955$1_0$367              mmcsd
     000090E4  A$mmcsd$1111                       mmcsd
     000090E4  C$mmcsd.c$956$1_0$367              mmcsd
     000090E4  XG$SD_WriteByte$0$0                mmcsd
     000090E5  A$mmcsd$1126                       mmcsd
     000090E5  C$mmcsd.c$963$1_0$371              mmcsd
     000090E5  C$mmcsd.c$968$1_0$371              mmcsd
     000090E5  G$SD_ReadByte$0$0                  mmcsd
     000090E5  _SD_ReadByte                       mmcsd
     000090E8  A$mmcsd$1130                       mmcsd
     000090E8  C$mmcsd.c$971$1_0$371              mmcsd
     000090EC  A$mmcsd$1135                       mmcsd
     000090EC  C$mmcsd.c$974$1_0$371              mmcsd
     000090EF  A$mmcsd$1139                       mmcsd
     000090EF  C$mmcsd.c$977$1_0$371              mmcsd
     000090F2  A$mmcsd$1150                       mmcsd
     000090F2  C$mmcsd.c$980$1_0$371              mmcsd
     000090F2  C$mmcsd.c$981$1_0$371              mmcsd
     000090F2  XG$SD_ReadByte$0$0                 mmcsd
     000090F3  A$mmcsd$1164                       mmcsd
     000090F3  C$mmcsd.c$1025$1_0$375             mmcsd
     000090F3  C$mmcsd.c$1035$1_0$375             mmcsd
     000090F3  G$SD_LowLevel_Init$0$0             mmcsd
ASxxxx Linker V03.00 + NoICE + sdld,  page 61.
Hexadecimal  [32-Bits]

Area                                    Addr        Size        Decimal Bytes (Attributes)
--------------------------------        ----        ----        ------- ----- ------------
CODE                                0000810D    00001FDA =        8154. bytes (REL,CON)

      Value  Global                              Global Defined In Module
      -----  --------------------------------   ------------------------
     000090F3  _SD_LowLevel_Init                  mmcsd
     000090F7  A$mmcsd$1168                       mmcsd
     000090F7  C$mmcsd.c$1037$1_0$375             mmcsd
     000090FB  A$mmcsd$1172                       mmcsd
     000090FB  C$mmcsd.c$1039$1_0$375             mmcsd
     000090FE  A$mmcsd$1174                       mmcsd
     00009100  A$mmcsd$1176                       mmcsd
     00009103  A$mmcsd$1180                       mmcsd
     00009103  C$mmcsd.c$1041$1_0$375             mmcsd
     00009107  A$mmcsd$1184                       mmcsd
     00009107  C$mmcsd.c$1044$1_0$375             mmcsd
     0000910A  A$mmcsd$1186                       mmcsd
     0000910C  A$mmcsd$1188                       mmcsd
     0000910F  A$mmcsd$1192                       mmcsd
     0000910F  C$mmcsd.c$1048$1_0$375             mmcsd
     00009112  A$mmcsd$1194                       mmcsd
     00009114  A$mmcsd$1196                       mmcsd
     00009117  A$mmcsd$1200                       mmcsd
     00009117  C$mmcsd.c$1049$1_0$375             mmcsd
     0000911A  A$mmcsd$1202                       mmcsd
     0000911C  A$mmcsd$1204                       mmcsd
     0000911F  A$mmcsd$1208                       mmcsd
     0000911F  C$mmcsd.c$1050$1_0$375             mmcsd
     00009122  A$mmcsd$1210                       mmcsd
     00009124  A$mmcsd$1212                       mmcsd
     00009127  A$mmcsd$1216                       mmcsd
     00009127  C$mmcsd.c$1051$1_0$375             mmcsd
     0000912A  A$mmcsd$1218                       mmcsd
     0000912C  A$mmcsd$1220                       mmcsd
     0000912F  A$mmcsd$1228                       mmcsd
     0000912F  C$mmcsd.c$1052$1_0$375             mmcsd
     0000912F  XG$SD_LowLevel_Init$0$0            mmcsd
     00009130  A$pff$68                           pff
     00009130  C$pff.c$384$0_0$323                pff
     00009130  Fpff$ld_word$0$0                   pff
     00009131  A$pff$72                           pff
     00009131  C$pff.c$388$1_0$323                pff
     00009133  A$pff$74                           pff
     00009135  A$pff$77                           pff
     00009136  A$pff$82                           pff
     00009136  C$pff.c$389$1_0$323                pff
     00009138  A$pff$83                           pff
     0000913A  A$pff$85                           pff
     0000913C  A$pff$87                           pff
     0000913D  A$pff$90                           pff
     0000913E  A$pff$92                           pff
     00009140  A$pff$93                           pff
     00009141  A$pff$94                           pff
     00009142  A$pff$95                           pff
     00009144  A$pff$100                          pff
     00009144  C$pff.c$390$1_0$323                pff
ASxxxx Linker V03.00 + NoICE + sdld,  page 62.
Hexadecimal  [32-Bits]

Area                                    Addr        Size        Decimal Bytes (Attributes)
--------------------------------        ----        ----        ------- ----- ------------
CODE                                0000810D    00001FDA =        8154. bytes (REL,CON)

      Value  Global                              Global Defined In Module
      -----  --------------------------------   ------------------------
     00009145  A$pff$106                          pff
     00009147  A$pff$109                          pff
     00009147  C$pff.c$391$1_0$323                pff
     00009147  XFpff$ld_word$0$0                  pff
     00009148  A$pff$120                          pff
     00009148  C$pff.c$393$1_0$325                pff
     00009148  Fpff$ld_dword$0$0                  pff
     0000914A  A$pff$124                          pff
     0000914A  C$pff.c$397$1_0$325                pff
     0000914C  A$pff$126                          pff
     0000914E  A$pff$129                          pff
     0000914F  A$pff$130                          pff
     00009151  A$pff$132                          pff
     00009152  A$pff$136                          pff
     00009152  C$pff.c$398$1_0$325                pff
     00009154  A$pff$137                          pff
     00009156  A$pff$139                          pff
     00009158  A$pff$141                          pff
     0000915A  A$pff$144                          pff
     0000915C  A$pff$145                          pff
     0000915D  A$pff$146                          pff
     0000915F  A$pff$148                          pff
     00009161  A$pff$149                          pff
     00009162  A$pff$150                          pff
     00009164  A$pff$151                          pff
     00009166  A$pff$152                          pff
     00009168  A$pff$153                          pff
     00009169  A$pff$154                          pff
     0000916B  A$pff$155                          pff
     0000916D  A$pff$156                          pff
     0000916E  A$pff$157                          pff
     0000916F  A$pff$158                          pff
     00009171  A$pff$159                          pff
     00009173  A$pff$161                          pff
     00009174  A$pff$165                          pff
     00009174  C$pff.c$399$1_0$325                pff
     00009176  A$pff$166                          pff
     00009177  A$pff$167                          pff
     00009178  A$pff$168                          pff
     00009179  A$pff$169                          pff
     0000917B  A$pff$171                          pff
     0000917D  A$pff$173                          pff
     0000917F  A$pff$176                          pff
     00009180  A$pff$177                          pff
     00009182  A$pff$178                          pff
     00009184  A$pff$180                          pff
     00009186  A$pff$181                          pff
     00009187  A$pff$182                          pff
     00009188  A$pff$183                          pff
     0000918A  A$pff$184                          pff
     0000918C  A$pff$185                          pff
ASxxxx Linker V03.00 + NoICE + sdld,  page 63.
Hexadecimal  [32-Bits]

Area                                    Addr        Size        Decimal Bytes (Attributes)
--------------------------------        ----        ----        ------- ----- ------------
CODE                                0000810D    00001FDA =        8154. bytes (REL,CON)

      Value  Global                              Global Defined In Module
      -----  --------------------------------   ------------------------
     0000918D  A$pff$186                          pff
     0000918E  A$pff$187                          pff
     00009190  A$pff$188                          pff
     00009192  A$pff$189                          pff
     00009194  A$pff$190                          pff
     00009196  A$pff$191                          pff
     00009198  A$pff$196                          pff
     00009198  C$pff.c$400$1_0$325                pff
     0000919A  A$pff$197                          pff
     0000919C  A$pff$199                          pff
     0000919E  A$pff$201                          pff
     0000919F  A$pff$204                          pff
     000091A1  A$pff$205                          pff
     000091A2  A$pff$206                          pff
     000091A4  A$pff$208                          pff
     000091A6  A$pff$209                          pff
     000091A7  A$pff$210                          pff
     000091A9  A$pff$211                          pff
     000091AB  A$pff$212                          pff
     000091AD  A$pff$213                          pff
     000091AE  A$pff$214                          pff
     000091B0  A$pff$215                          pff
     000091B2  A$pff$216                          pff
     000091B3  A$pff$217                          pff
     000091B4  A$pff$218                          pff
     000091B6  A$pff$219                          pff
     000091B8  A$pff$221                          pff
     000091B9  A$pff$222                          pff
     000091BA  A$pff$223                          pff
     000091BB  A$pff$224                          pff
     000091BC  A$pff$228                          pff
     000091BC  C$pff.c$401$1_0$325                pff
     000091BD  A$pff$234                          pff
     000091BF  A$pff$237                          pff
     000091BF  C$pff.c$402$1_0$325                pff
     000091BF  XFpff$ld_dword$0$0                 pff
     000091C0  A$pff$248                          pff
     000091C0  C$pff.c$411$1_0$327                pff
     000091C0  Fpff$mem_set$0$0                   pff
     000091C1  A$pff$253                          pff
     000091C1  C$pff.c$412$1_0$327                pff
     000091C3  A$pff$258                          pff
     000091C3  C$pff.c$413$1_0$327                pff
     000091C5  A$pff$260                          pff
     000091C7  A$pff$264                          pff
     000091C8  A$pff$266                          pff
     000091CA  A$pff$268                          pff
     000091CB  A$pff$269                          pff
     000091CD  A$pff$270                          pff
     000091D0  A$pff$274                          pff
     000091D2  A$pff$276                          pff
ASxxxx Linker V03.00 + NoICE + sdld,  page 64.
Hexadecimal  [32-Bits]

Area                                    Addr        Size        Decimal Bytes (Attributes)
--------------------------------        ----        ----        ------- ----- ------------
CODE                                0000810D    00001FDA =        8154. bytes (REL,CON)

      Value  Global                              Global Defined In Module
      -----  --------------------------------   ------------------------
     000091D4  A$pff$277                          pff
     000091D5  A$pff$279                          pff
     000091D7  A$pff$280                          pff
     000091D8  A$pff$281                          pff
     000091DA  A$pff$284                          pff
     000091DD  A$pff$290                          pff
     000091DE  A$pff$293                          pff
     000091DE  C$pff.c$414$1_0$327                pff
     000091DE  XFpff$mem_set$0$0                  pff
     000091DF  A$pff$304                          pff
     000091DF  C$pff.c$417$1_0$329                pff
     000091DF  Fpff$mem_cmp$0$0                   pff
     000091E1  A$pff$309                          pff
     000091E1  C$pff.c$418$1_0$329                pff
     000091E3  A$pff$313                          pff
     000091E5  A$pff$318                          pff
     000091E5  C$pff.c$419$1_0$329                pff
     000091E7  A$pff$319                          pff
     000091E9  A$pff$323                          pff
     000091E9  C$pff.c$420$1_0$329                pff
     000091EB  A$pff$325                          pff
     000091ED  A$pff$327                          pff
     000091EF  A$pff$328                          pff
     000091F1  A$pff$332                          pff
     000091F3  A$pff$333                          pff
     000091F5  A$pff$335                          pff
     000091F7  A$pff$336                          pff
     000091F8  A$pff$337                          pff
     000091FA  A$pff$339                          pff
     000091FC  A$pff$340                          pff
     000091FE  A$pff$341                          pff
     00009201  A$pff$344                          pff
     00009203  A$pff$345                          pff
     00009204  A$pff$347                          pff
     00009206  A$pff$348                          pff
     00009207  A$pff$349                          pff
     00009209  A$pff$353                          pff
     0000920A  A$pff$354                          pff
     0000920B  A$pff$356                          pff
     0000920D  A$pff$357                          pff
     0000920F  A$pff$359                          pff
     00009211  A$pff$360                          pff
     00009213  A$pff$361                          pff
     00009215  A$pff$364                          pff
     00009217  A$pff$365                          pff
     00009219  A$pff$367                          pff
     0000921C  A$pff$369                          pff
     0000921E  A$pff$371                          pff
     0000921F  A$pff$372                          pff
     00009221  A$pff$373                          pff
     00009224  A$pff$380                          pff
ASxxxx Linker V03.00 + NoICE + sdld,  page 65.
Hexadecimal  [32-Bits]

Area                                    Addr        Size        Decimal Bytes (Attributes)
--------------------------------        ----        ----        ------- ----- ------------
CODE                                0000810D    00001FDA =        8154. bytes (REL,CON)

      Value  Global                              Global Defined In Module
      -----  --------------------------------   ------------------------
     00009224  C$pff.c$421$1_0$329                pff
     00009226  A$pff$386                          pff
     00009228  A$pff$389                          pff
     00009228  C$pff.c$422$1_0$329                pff
     00009228  XFpff$mem_cmp$0$0                  pff
     00009229  A$pff$400                          pff
     00009229  C$pff.c$430$1_0$331                pff
     00009229  Fpff$get_fat$0$0                   pff
     0000922B  A$pff$404                          pff
     0000922B  C$pff.c$435$2_0$331                pff
     0000922F  A$pff$409                          pff
     0000922F  C$pff.c$440$1_0$331                pff
     00009231  A$pff$410                          pff
     00009234  A$pff$411                          pff
     00009236  A$pff$412                          pff
     00009238  A$pff$413                          pff
     0000923A  A$pff$414                          pff
     0000923C  A$pff$415                          pff
     0000923E  A$pff$416                          pff
     00009241  A$pff$420                          pff
     00009242  A$pff$422                          pff
     00009244  A$pff$423                          pff
     00009246  A$pff$424                          pff
     00009248  A$pff$425                          pff
     0000924A  A$pff$426                          pff
     0000924C  A$pff$427                          pff
     0000924E  A$pff$430                          pff
     00009250  A$pff$431                          pff
     00009252  A$pff$432                          pff
     00009254  A$pff$433                          pff
     00009256  A$pff$434                          pff
     00009258  A$pff$435                          pff
     0000925A  A$pff$436                          pff
     0000925C  A$pff$437                          pff
     0000925F  A$pff$443                          pff
     00009260  A$pff$444                          pff
     00009261  A$pff$445                          pff
     00009263  A$pff$446                          pff
     00009266  A$pff$452                          pff
     00009266  C$pff.c$442$1_0$331                pff
     00009268  A$pff$454                          pff
     0000926A  A$pff$455                          pff
     0000926C  A$pff$456                          pff
     0000926F  A$pff$458                          pff
     00009272  A$pff$465                          pff
     00009272  C$pff.c$464$2_0$332                pff
     00009274  A$pff$467                          pff
     00009275  A$pff$468                          pff
     00009277  A$pff$469                          pff
     00009278  A$pff$470                          pff
     00009279  A$pff$471                          pff
ASxxxx Linker V03.00 + NoICE + sdld,  page 66.
Hexadecimal  [32-Bits]

Area                                    Addr        Size        Decimal Bytes (Attributes)
--------------------------------        ----        ----        ------- ----- ------------
CODE                                0000810D    00001FDA =        8154. bytes (REL,CON)

      Value  Global                              Global Defined In Module
      -----  --------------------------------   ------------------------
     0000927A  A$pff$473                          pff
     0000927B  A$pff$474                          pff
     0000927C  A$pff$475                          pff
     0000927E  A$pff$477                          pff
     0000927F  A$pff$479                          pff
     00009281  A$pff$480                          pff
     00009283  A$pff$481                          pff
     00009285  A$pff$482                          pff
     00009287  A$pff$483                          pff
     00009289  A$pff$485                          pff
     0000928B  A$pff$486                          pff
     0000928D  A$pff$487                          pff
     0000928E  A$pff$488                          pff
     0000928F  A$pff$489                          pff
     00009291  A$pff$490                          pff
     00009292  A$pff$491                          pff
     00009293  A$pff$492                          pff
     00009294  A$pff$493                          pff
     00009296  A$pff$494                          pff
     00009297  A$pff$495                          pff
     00009299  A$pff$497                          pff
     0000929A  A$pff$498                          pff
     0000929B  A$pff$499                          pff
     0000929D  A$pff$500                          pff
     0000929E  A$pff$501                          pff
     000092A1  A$pff$502                          pff
     000092A3  A$pff$503                          pff
     000092A5  A$pff$504                          pff
     000092A7  A$pff$505                          pff
     000092A9  A$pff$506                          pff
     000092AB  A$pff$507                          pff
     000092AD  A$pff$511                          pff
     000092AF  A$pff$512                          pff
     000092B1  A$pff$514                          pff
     000092B3  A$pff$515                          pff
     000092B5  A$pff$517                          pff
     000092B6  A$pff$518                          pff
     000092B8  A$pff$519                          pff
     000092B9  A$pff$521                          pff
     000092BA  A$pff$522                          pff
     000092BD  A$pff$523                          pff
     000092BE  A$pff$525                          pff
     000092C1  A$pff$526                          pff
     000092C3  A$pff$528                          pff
     000092C4  A$pff$529                          pff
     000092C6  A$pff$530                          pff
     000092C9  A$pff$537                          pff
     000092C9  C$pff.c$465$2_0$332                pff
     000092CA  A$pff$538                          pff
     000092CB  A$pff$539                          pff
     000092CC  A$pff$541                          pff
ASxxxx Linker V03.00 + NoICE + sdld,  page 67.
Hexadecimal  [32-Bits]

Area                                    Addr        Size        Decimal Bytes (Attributes)
--------------------------------        ----        ----        ------- ----- ------------
CODE                                0000810D    00001FDA =        8154. bytes (REL,CON)

      Value  Global                              Global Defined In Module
      -----  --------------------------------   ------------------------
     000092CF  A$pff$542                          pff
     000092D1  A$pff$544                          pff
     000092D3  A$pff$545                          pff
     000092D5  A$pff$547                          pff
     000092D7  A$pff$548                          pff
     000092DA  A$pff$556                          pff
     000092DA  C$pff.c$467$1_0$331                pff
     000092DA  C$pff.c$469$1_0$331                pff
     000092DB  A$pff$557                          pff
     000092DC  A$pff$558                          pff
     000092DE  A$pff$564                          pff
     000092E0  A$pff$567                          pff
     000092E0  C$pff.c$470$1_0$331                pff
     000092E0  XFpff$get_fat$0$0                  pff
     000092E1  A$pff$578                          pff
     000092E1  C$pff.c$479$1_0$334                pff
     000092E1  Fpff$clust2sect$0$0                pff
     000092E3  A$pff$582                          pff
     000092E3  C$pff.c$483$2_0$334                pff
     000092E6  A$pff$583                          pff
     000092E8  A$pff$587                          pff
     000092E8  C$pff.c$486$1_0$334                pff
     000092EA  A$pff$588                          pff
     000092ED  A$pff$589                          pff
     000092EF  A$pff$590                          pff
     000092F1  A$pff$591                          pff
     000092F3  A$pff$594                          pff
     000092F5  A$pff$595                          pff
     000092F7  A$pff$599                          pff
     000092F7  C$pff.c$487$1_0$334                pff
     000092F9  A$pff$601                          pff
     000092FB  A$pff$602                          pff
     000092FE  A$pff$603                          pff
     00009300  A$pff$605                          pff
     00009304  A$pff$606                          pff
     00009306  A$pff$607                          pff
     00009308  A$pff$608                          pff
     00009309  A$pff$610                          pff
     0000930B  A$pff$613                          pff
     0000930D  A$pff$614                          pff
     0000930F  A$pff$615                          pff
     00009311  A$pff$616                          pff
     00009313  A$pff$617                          pff
     00009315  A$pff$618                          pff
     00009317  A$pff$619                          pff
     00009319  A$pff$620                          pff
     0000931C  A$pff$624                          pff
     0000931D  A$pff$625                          pff
     0000931F  A$pff$626                          pff
     00009322  A$pff$632                          pff
     00009322  C$pff.c$488$1_0$334                pff
ASxxxx Linker V03.00 + NoICE + sdld,  page 68.
Hexadecimal  [32-Bits]

Area                                    Addr        Size        Decimal Bytes (Attributes)
--------------------------------        ----        ----        ------- ----- ------------
CODE                                0000810D    00001FDA =        8154. bytes (REL,CON)

      Value  Global                              Global Defined In Module
      -----  --------------------------------   ------------------------
     00009324  A$pff$634                          pff
     00009326  A$pff$637                          pff
     00009327  A$pff$638                          pff
     00009328  A$pff$639                          pff
     0000932A  A$pff$641                          pff
     0000932B  A$pff$642                          pff
     0000932D  A$pff$644                          pff
     0000932F  A$pff$645                          pff
     00009330  A$pff$646                          pff
     00009332  A$pff$647                          pff
     00009333  A$pff$649                          pff
     00009336  A$pff$650                          pff
     00009338  A$pff$651                          pff
     0000933A  A$pff$652                          pff
     0000933C  A$pff$654                          pff
     0000933E  A$pff$656                          pff
     00009340  A$pff$657                          pff
     00009343  A$pff$658                          pff
     00009345  A$pff$659                          pff
     00009347  A$pff$661                          pff
     00009348  A$pff$662                          pff
     0000934B  A$pff$663                          pff
     0000934D  A$pff$664                          pff
     0000934F  A$pff$665                          pff
     00009351  A$pff$667                          pff
     00009354  A$pff$674                          pff
     00009356  A$pff$677                          pff
     00009356  C$pff.c$489$1_0$334                pff
     00009356  XFpff$clust2sect$0$0               pff
     00009357  A$pff$688                          pff
     00009357  C$pff.c$492$1_0$336                pff
     00009357  Fpff$get_clust$0$0                 pff
     00009359  A$pff$692                          pff
     00009359  C$pff.c$501$2_0$337                pff
     0000935B  A$pff$693                          pff
     0000935E  A$pff$695                          pff
     0000935F  A$pff$697                          pff
     00009362  A$pff$698                          pff
     00009364  A$pff$701                          pff
     00009365  A$pff$702                          pff
     00009366  A$pff$707                          pff
     00009366  C$pff.c$502$2_0$337                pff
     00009367  A$pff$709                          pff
     00009369  A$pff$710                          pff
     0000936B  A$pff$714                          pff
     0000936B  C$pff.c$504$1_0$336                pff
     0000936D  A$pff$715                          pff
     00009370  A$pff$717                          pff
     00009371  A$pff$719                          pff
     00009374  A$pff$720                          pff
     00009376  A$pff$723                          pff
ASxxxx Linker V03.00 + NoICE + sdld,  page 69.
Hexadecimal  [32-Bits]

Area                                    Addr        Size        Decimal Bytes (Attributes)
--------------------------------        ----        ----        ------- ----- ------------
CODE                                0000810D    00001FDA =        8154. bytes (REL,CON)

      Value  Global                              Global Defined In Module
      -----  --------------------------------   ------------------------
     00009377  A$pff$724                          pff
     00009379  A$pff$726                          pff
     0000937B  A$pff$727                          pff
     0000937D  A$pff$728                          pff
     0000937E  A$pff$729                          pff
     00009380  A$pff$730                          pff
     00009381  A$pff$731                          pff
     00009382  A$pff$732                          pff
     00009384  A$pff$733                          pff
     00009385  A$pff$734                          pff
     00009387  A$pff$735                          pff
     00009389  A$pff$740                          pff
     00009389  C$pff.c$506$1_0$336                pff
     0000938B  A$pff$746                          pff
     0000938D  A$pff$749                          pff
     0000938D  C$pff.c$507$1_0$336                pff
     0000938D  XFpff$get_clust$0$0                pff
     0000938E  A$pff$760                          pff
     0000938E  C$pff.c$514$1_0$339                pff
     0000938E  Fpff$dir_rewind$0$0                pff
     00009390  A$pff$764                          pff
     00009390  C$pff.c$519$2_0$339                pff
     00009393  A$pff$765                          pff
     00009395  A$pff$769                          pff
     00009395  C$pff.c$522$1_0$339                pff
     00009397  A$pff$770                          pff
     00009399  A$pff$772                          pff
     0000939B  A$pff$773                          pff
     0000939D  A$pff$774                          pff
     0000939E  A$pff$778                          pff
     0000939E  C$pff.c$523$1_0$339                pff
     000093A0  A$pff$780                          pff
     000093A2  A$pff$781                          pff
     000093A5  A$pff$782                          pff
     000093A7  A$pff$784                          pff
     000093A9  A$pff$785                          pff
     000093AB  A$pff$789                          pff
     000093AB  C$pff.c$524$1_0$339                pff
     000093AD  A$pff$790                          pff
     000093AE  A$pff$791                          pff
     000093B0  A$pff$792                          pff
     000093B2  A$pff$793                          pff
     000093B4  A$pff$794                          pff
     000093B7  A$pff$798                          pff
     000093B9  A$pff$800                          pff
     000093BB  A$pff$801                          pff
     000093BE  A$pff$802                          pff
     000093C0  A$pff$803                          pff
     000093C2  A$pff$804                          pff
     000093C4  A$pff$807                          pff
     000093C6  A$pff$808                          pff
ASxxxx Linker V03.00 + NoICE + sdld,  page 70.
Hexadecimal  [32-Bits]

Area                                    Addr        Size        Decimal Bytes (Attributes)
--------------------------------        ----        ----        ------- ----- ------------
CODE                                0000810D    00001FDA =        8154. bytes (REL,CON)

      Value  Global                              Global Defined In Module
      -----  --------------------------------   ------------------------
     000093C8  A$pff$809                          pff
     000093CA  A$pff$810                          pff
     000093CC  A$pff$811                          pff
     000093CE  A$pff$812                          pff
     000093D0  A$pff$813                          pff
     000093D2  A$pff$814                          pff
     000093D5  A$pff$822                          pff
     000093D5  C$pff.c$525$2_0$340                pff
     000093D7  A$pff$823                          pff
     000093DA  A$pff$829                          pff
     000093DA  C$pff.c$527$1_0$339                pff
     000093DC  A$pff$830                          pff
     000093DE  A$pff$831                          pff
     000093E0  A$pff$832                          pff
     000093E2  A$pff$834                          pff
     000093E5  A$pff$840                          pff
     000093E5  C$pff.c$528$2_0$341                pff
     000093E7  A$pff$841                          pff
     000093E9  A$pff$842                          pff
     000093EC  A$pff$843                          pff
     000093EE  A$pff$844                          pff
     000093F0  A$pff$845                          pff
     000093F2  A$pff$852                          pff
     000093F2  C$pff.c$530$1_0$339                pff
     000093F4  A$pff$853                          pff
     000093F7  A$pff$855                          pff
     000093F9  A$pff$856                          pff
     000093FB  A$pff$857                          pff
     000093FD  A$pff$858                          pff
     000093FE  A$pff$862                          pff
     000093FE  C$pff.c$531$1_0$339                pff
     00009400  A$pff$863                          pff
     00009403  A$pff$864                          pff
     00009405  A$pff$866                          pff
     00009407  A$pff$867                          pff
     00009408  A$pff$868                          pff
     0000940A  A$pff$869                          pff
     0000940B  A$pff$871                          pff
     0000940E  A$pff$872                          pff
     00009410  A$pff$873                          pff
     00009411  A$pff$875                          pff
     00009413  A$pff$877                          pff
     00009415  A$pff$878                          pff
     00009417  A$pff$879                          pff
     00009419  A$pff$880                          pff
     0000941A  A$pff$884                          pff
     0000941A  C$pff.c$533$1_0$339                pff
     0000941B  A$pff$890                          pff
     0000941D  A$pff$893                          pff
     0000941D  C$pff.c$534$1_0$339                pff
     0000941D  XFpff$dir_rewind$0$0               pff
ASxxxx Linker V03.00 + NoICE + sdld,  page 71.
Hexadecimal  [32-Bits]

Area                                    Addr        Size        Decimal Bytes (Attributes)
--------------------------------        ----        ----        ------- ----- ------------
CODE                                0000810D    00001FDA =        8154. bytes (REL,CON)

      Value  Global                              Global Defined In Module
      -----  --------------------------------   ------------------------
     0000941E  A$pff$904                          pff
     0000941E  C$pff.c$543$1_0$343                pff
     0000941E  Fpff$dir_next$0$0                  pff
     00009420  A$pff$908                          pff
     00009420  C$pff.c$549$2_0$343                pff
     00009423  A$pff$909                          pff
     00009425  A$pff$913                          pff
     00009425  C$pff.c$552$1_0$343                pff
     00009427  A$pff$914                          pff
     00009429  A$pff$916                          pff
     0000942B  A$pff$917                          pff
     0000942C  A$pff$921                          pff
     0000942D  A$pff$925                          pff
     0000942F  A$pff$929                          pff
     0000942F  C$pff.c$553$1_0$343                pff
     00009431  A$pff$930                          pff
     00009433  A$pff$931                          pff
     00009436  A$pff$934                          pff
     00009438  A$pff$935                          pff
     0000943B  A$pff$936                          pff
     0000943D  A$pff$938                          pff
     0000943F  A$pff$939                          pff
     00009441  A$pff$940                          pff
     00009444  A$pff$941                          pff
     00009446  A$pff$942                          pff
     00009447  A$pff$943                          pff
     00009449  A$pff$945                          pff
     0000944B  A$pff$946                          pff
     0000944D  A$pff$947                          pff
     0000944F  A$pff$948                          pff
     00009451  A$pff$950                          pff
     00009454  A$pff$955                          pff
     00009456  A$pff$956                          pff
     00009459  A$pff$963                          pff
     00009459  C$pff.c$555$1_0$343                pff
     0000945B  A$pff$964                          pff
     0000945D  A$pff$966                          pff
     0000945F  A$pff$967                          pff
     00009461  A$pff$968                          pff
     00009463  A$pff$969                          pff
     00009466  A$pff$975                          pff
     00009466  C$pff.c$556$2_0$344                pff
     00009468  A$pff$976                          pff
     0000946A  A$pff$977                          pff
     0000946B  A$pff$978                          pff
     0000946D  A$pff$979                          pff
     0000946F  A$pff$980                          pff
     00009471  A$pff$981                          pff
     00009473  A$pff$982                          pff
     00009475  A$pff$983                          pff
     00009477  A$pff$985                          pff
ASxxxx Linker V03.00 + NoICE + sdld,  page 72.
Hexadecimal  [32-Bits]

Area                                    Addr        Size        Decimal Bytes (Attributes)
--------------------------------        ----        ----        ------- ----- ------------
CODE                                0000810D    00001FDA =        8154. bytes (REL,CON)

      Value  Global                              Global Defined In Module
      -----  --------------------------------   ------------------------
     00009478  A$pff$987                          pff
     0000947A  A$pff$988                          pff
     0000947C  A$pff$989                          pff
     0000947E  A$pff$990                          pff
     00009480  A$pff$991                          pff
     00009481  A$pff$995                          pff
     00009481  C$pff.c$558$1_0$343                pff
     00009483  A$pff$996                          pff
     00009486  A$pff$997                          pff
     00009488  A$pff$999                          pff
     0000948A  A$pff$1000                         pff
     0000948C  A$pff$1001                         pff
     0000948F  A$pff$1002                         pff
     00009490  A$pff$1003                         pff
     00009492  A$pff$1005                         pff
     00009494  A$pff$1006                         pff
     00009496  A$pff$1007                         pff
     00009498  A$pff$1008                         pff
     0000949A  A$pff$1010                         pff
     0000949D  A$pff$1015                         pff
     0000949D  C$pff.c$559$3_0$345                pff
     0000949F  A$pff$1017                         pff
     000094A1  A$pff$1018                         pff
     000094A3  A$pff$1021                         pff
     000094A5  A$pff$1022                         pff
     000094A7  A$pff$1023                         pff
     000094A9  A$pff$1024                         pff
     000094AC  A$pff$1028                         pff
     000094AE  A$pff$1029                         pff
     000094B1  A$pff$1035                         pff
     000094B1  C$pff.c$562$3_0$346                pff
     000094B3  A$pff$1036                         pff
     000094B5  A$pff$1037                         pff
     000094B7  A$pff$1038                         pff
     000094B9  A$pff$1039                         pff
     000094BB  A$pff$1040                         pff
     000094BD  A$pff$1041                         pff
     000094BF  A$pff$1042                         pff
     000094C1  A$pff$1044                         pff
     000094C3  A$pff$1046                         pff
     000094C5  A$pff$1049                         pff
     000094C6  A$pff$1050                         pff
     000094C7  A$pff$1052                         pff
     000094C8  A$pff$1053                         pff
     000094C9  A$pff$1055                         pff
     000094CB  A$pff$1056                         pff
     000094CC  A$pff$1057                         pff
     000094CD  A$pff$1058                         pff
     000094CF  A$pff$1059                         pff
     000094D0  A$pff$1061                         pff
     000094D1  A$pff$1062                         pff
ASxxxx Linker V03.00 + NoICE + sdld,  page 73.
Hexadecimal  [32-Bits]

Area                                    Addr        Size        Decimal Bytes (Attributes)
--------------------------------        ----        ----        ------- ----- ------------
CODE                                0000810D    00001FDA =        8154. bytes (REL,CON)

      Value  Global                              Global Defined In Module
      -----  --------------------------------   ------------------------
     000094D3  A$pff$1063                         pff
     000094D6  A$pff$1068                         pff
     000094D6  C$pff.c$563$4_0$347                pff
     000094D8  A$pff$1069                         pff
     000094DA  A$pff$1070                         pff
     000094DB  A$pff$1072                         pff
     000094DE  A$pff$1073                         pff
     000094E0  A$pff$1075                         pff
     000094E2  A$pff$1076                         pff
     000094E4  A$pff$1081                         pff
     000094E4  C$pff.c$564$4_0$347                pff
     000094E5  A$pff$1082                         pff
     000094E6  A$pff$1083                         pff
     000094E8  A$pff$1084                         pff
     000094E9  A$pff$1085                         pff
     000094EB  A$pff$1086                         pff
     000094EC  A$pff$1087                         pff
     000094EE  A$pff$1088                         pff
     000094F0  A$pff$1089                         pff
     000094F3  A$pff$1093                         pff
     000094F5  A$pff$1094                         pff
     000094F8  A$pff$1100                         pff
     000094F8  C$pff.c$565$4_0$347                pff
     000094FA  A$pff$1102                         pff
     000094FC  A$pff$1103                         pff
     000094FF  A$pff$1104                         pff
     00009501  A$pff$1105                         pff
     00009503  A$pff$1106                         pff
     00009505  A$pff$1109                         pff
     00009507  A$pff$1110                         pff
     00009509  A$pff$1111                         pff
     0000950B  A$pff$1112                         pff
     0000950D  A$pff$1113                         pff
     0000950F  A$pff$1114                         pff
     00009511  A$pff$1115                         pff
     00009513  A$pff$1116                         pff
     00009516  A$pff$1120                         pff
     00009518  A$pff$1121                         pff
     0000951B  A$pff$1127                         pff
     0000951B  C$pff.c$566$4_0$347                pff
     0000951D  A$pff$1128                         pff
     0000951F  A$pff$1129                         pff
     00009521  A$pff$1130                         pff
     00009523  A$pff$1131                         pff
     00009524  A$pff$1135                         pff
     00009524  C$pff.c$567$4_0$347                pff
     00009526  A$pff$1136                         pff
     00009527  A$pff$1137                         pff
     00009529  A$pff$1138                         pff
     0000952A  A$pff$1140                         pff
     0000952D  A$pff$1141                         pff
ASxxxx Linker V03.00 + NoICE + sdld,  page 74.
Hexadecimal  [32-Bits]

Area                                    Addr        Size        Decimal Bytes (Attributes)
--------------------------------        ----        ----        ------- ----- ------------
CODE                                0000810D    00001FDA =        8154. bytes (REL,CON)

      Value  Global                              Global Defined In Module
      -----  --------------------------------   ------------------------
     0000952F  A$pff$1142                         pff
     00009531  A$pff$1144                         pff
     00009533  A$pff$1145                         pff
     00009536  A$pff$1146                         pff
     00009538  A$pff$1147                         pff
     0000953A  A$pff$1153                         pff
     0000953A  C$pff.c$572$1_0$343                pff
     0000953C  A$pff$1154                         pff
     0000953E  A$pff$1155                         pff
     0000953F  A$pff$1159                         pff
     0000953F  C$pff.c$574$1_0$343                pff
     00009540  A$pff$1165                         pff
     00009542  A$pff$1168                         pff
     00009542  C$pff.c$575$1_0$343                pff
     00009542  XFpff$dir_next$0$0                 pff
     00009543  A$pff$1179                         pff
     00009543  C$pff.c$584$1_0$349                pff
     00009543  Fpff$dir_find$0$0                  pff
     00009545  A$pff$1183                         pff
     00009545  C$pff.c$593$1_0$349                pff
     00009547  A$pff$1184                         pff
     00009548  A$pff$1186                         pff
     0000954B  A$pff$1187                         pff
     0000954C  A$pff$1192                         pff
     0000954C  C$pff.c$594$1_0$349                pff
     0000954D  A$pff$1193                         pff
     0000954F  A$pff$1194                         pff
     00009552  A$pff$1197                         pff
     00009555  A$pff$1203                         pff
     00009555  C$pff.c$596$1_0$349                pff
     00009557  A$pff$1204                         pff
     00009559  A$pff$1206                         pff
     0000955B  A$pff$1207                         pff
     0000955D  A$pff$1209                         pff
     0000955F  A$pff$1210                         pff
     00009561  A$pff$1212                         pff
     00009563  A$pff$1213                         pff
     00009565  A$pff$1215                         pff
     00009567  A$pff$1216                         pff
     00009569  A$pff$1222                         pff
     00009569  C$pff.c$597$2_0$350                pff
     0000956B  A$pff$1223                         pff
     0000956C  A$pff$1226                         pff
     0000956D  A$pff$1228                         pff
     0000956F  A$pff$1229                         pff
     00009570  A$pff$1230                         pff
     00009571  A$pff$1231                         pff
     00009572  A$pff$1233                         pff
     00009573  A$pff$1234                         pff
     00009574  A$pff$1235                         pff
     00009575  A$pff$1236                         pff
ASxxxx Linker V03.00 + NoICE + sdld,  page 75.
Hexadecimal  [32-Bits]

Area                                    Addr        Size        Decimal Bytes (Attributes)
--------------------------------        ----        ----        ------- ----- ------------
CODE                                0000810D    00001FDA =        8154. bytes (REL,CON)

      Value  Global                              Global Defined In Module
      -----  --------------------------------   ------------------------
     00009576  A$pff$1237                         pff
     00009577  A$pff$1238                         pff
     00009579  A$pff$1240                         pff
     0000957B  A$pff$1241                         pff
     0000957D  A$pff$1242                         pff
     00009580  A$pff$1243                         pff
     00009582  A$pff$1245                         pff
     00009584  A$pff$1246                         pff
     00009586  A$pff$1248                         pff
     00009588  A$pff$1249                         pff
     00009589  A$pff$1250                         pff
     0000958B  A$pff$1251                         pff
     0000958C  A$pff$1253                         pff
     0000958E  A$pff$1254                         pff
     0000958F  A$pff$1256                         pff
     00009591  A$pff$1257                         pff
     00009592  A$pff$1259                         pff
     00009595  A$pff$1260                         pff
     00009597  A$pff$1262                         pff
     00009598  A$pff$1263                         pff
     0000959A  A$pff$1264                         pff
     0000959D  A$pff$1269                         pff
     0000959D  C$pff.c$598$2_0$350                pff
     0000959F  A$pff$1270                         pff
     000095A0  A$pff$1272                         pff
     000095A3  A$pff$1276                         pff
     000095A4  A$pff$1277                         pff
     000095A5  A$pff$1282                         pff
     000095A7  A$pff$1286                         pff
     000095A7  C$pff.c$599$2_0$350                pff
     000095A9  A$pff$1287                         pff
     000095AB  A$pff$1288                         pff
     000095AE  A$pff$1293                         pff
     000095AE  C$pff.c$600$2_0$350                pff
     000095B0  A$pff$1294                         pff
     000095B1  A$pff$1298                         pff
     000095B1  C$pff.c$601$2_0$350                pff
     000095B2  A$pff$1299                         pff
     000095B4  A$pff$1300                         pff
     000095B7  A$pff$1303                         pff
     000095B9  A$pff$1304                         pff
     000095BB  A$pff$1306                         pff
     000095BE  A$pff$1312                         pff
     000095BE  C$pff.c$602$2_0$350                pff
     000095C0  A$pff$1313                         pff
     000095C2  A$pff$1315                         pff
     000095C4  A$pff$1316                         pff
     000095C6  A$pff$1317                         pff
     000095C9  A$pff$1321                         pff
     000095CB  A$pff$1322                         pff
     000095CD  A$pff$1327                         pff
ASxxxx Linker V03.00 + NoICE + sdld,  page 76.
Hexadecimal  [32-Bits]

Area                                    Addr        Size        Decimal Bytes (Attributes)
--------------------------------        ----        ----        ------- ----- ------------
CODE                                0000810D    00001FDA =        8154. bytes (REL,CON)

      Value  Global                              Global Defined In Module
      -----  --------------------------------   ------------------------
     000095CF  A$pff$1329                         pff
     000095D1  A$pff$1330                         pff
     000095D3  A$pff$1332                         pff
     000095D4  A$pff$1334                         pff
     000095D6  A$pff$1336                         pff
     000095D9  A$pff$1337                         pff
     000095DB  A$pff$1339                         pff
     000095DC  A$pff$1340                         pff
     000095DE  A$pff$1341                         pff
     000095E1  A$pff$1348                         pff
     000095E1  C$pff.c$603$2_0$350                pff
     000095E3  A$pff$1349                         pff
     000095E4  A$pff$1351                         pff
     000095E7  A$pff$1352                         pff
     000095E8  A$pff$1354                         pff
     000095EA  A$pff$1358                         pff
     000095EA  C$pff.c$604$1_0$349                pff
     000095EC  A$pff$1359                         pff
     000095EE  A$pff$1360                         pff
     000095F1  A$pff$1367                         pff
     000095F1  C$pff.c$606$1_0$349                pff
     000095F3  A$pff$1373                         pff
     000095F5  A$pff$1376                         pff
     000095F5  C$pff.c$607$1_0$349                pff
     000095F5  XFpff$dir_find$0$0                 pff
     000095F6  A$pff$1387                         pff
     000095F6  C$pff.c$651$1_0$353                pff
     000095F6  Fpff$create_name$0$0               pff
     000095F8  A$pff$1391                         pff
     000095F8  C$pff.c$663$1_0$353                pff
     000095FA  A$pff$1394                         pff
     000095FC  A$pff$1396                         pff
     000095FE  A$pff$1401                         pff
     000095FE  C$pff.c$664$1_0$353                pff
     00009600  A$pff$1403                         pff
     00009602  A$pff$1404                         pff
     00009604  A$pff$1406                         pff
     00009606  A$pff$1407                         pff
     00009608  A$pff$1409                         pff
     00009609  A$pff$1411                         pff
     0000960C  A$pff$1412                         pff
     0000960E  A$pff$1416                         pff
     0000960E  C$pff.c$665$1_0$353                pff
     00009610  A$pff$1418                         pff
     00009612  A$pff$1420                         pff
     00009614  A$pff$1421                         pff
     00009616  A$pff$1425                         pff
     00009616  C$pff.c$666$1_0$353                pff
     00009618  A$pff$1427                         pff
     00009619  A$pff$1428                         pff
     0000961A  A$pff$1430                         pff
ASxxxx Linker V03.00 + NoICE + sdld,  page 77.
Hexadecimal  [32-Bits]

Area                                    Addr        Size        Decimal Bytes (Attributes)
--------------------------------        ----        ----        ------- ----- ------------
CODE                                0000810D    00001FDA =        8154. bytes (REL,CON)

      Value  Global                              Global Defined In Module
      -----  --------------------------------   ------------------------
     0000961C  A$pff$1436                         pff
     0000961C  C$pff.c$668$3_0$355                pff
     0000961D  A$pff$1437                         pff
     0000961F  A$pff$1438                         pff
     00009620  A$pff$1439                         pff
     00009623  A$pff$1441                         pff
     00009625  A$pff$1443                         pff
     00009626  A$pff$1444                         pff
     00009628  A$pff$1449                         pff
     00009628  C$pff.c$669$1_0$353                pff
     0000962A  A$pff$1450                         pff
     0000962C  A$pff$1451                         pff
     0000962E  A$pff$1452                         pff
     00009630  A$pff$1453                         pff
     00009633  A$pff$1455                         pff
     00009635  A$pff$1456                         pff
     00009637  A$pff$1459                         pff
     00009639  A$pff$1460                         pff
     0000963B  A$pff$1461                         pff
     0000963E  A$pff$1464                         pff
     00009640  A$pff$1465                         pff
     00009642  A$pff$1466                         pff
     00009644  A$pff$1467                         pff
     00009647  A$pff$1473                         pff
     00009647  C$pff.c$670$1_0$353                pff
     00009649  A$pff$1474                         pff
     0000964B  A$pff$1475                         pff
     0000964D  A$pff$1476                         pff
     0000964F  A$pff$1477                         pff
     00009652  A$pff$1479                         pff
     00009653  A$pff$1482                         pff
     00009654  A$pff$1483                         pff
     00009656  A$pff$1484                         pff
     00009659  A$pff$1488                         pff
     0000965A  A$pff$1489                         pff
     0000965C  A$pff$1490                         pff
     0000965E  A$pff$1491                         pff
     0000965F  A$pff$1492                         pff
     00009661  A$pff$1493                         pff
     00009664  A$pff$1501                         pff
     00009664  C$pff.c$671$4_0$356                pff
     00009665  A$pff$1502                         pff
     00009667  A$pff$1503                         pff
     00009669  A$pff$1504                         pff
     0000966A  A$pff$1505                         pff
     0000966C  A$pff$1506                         pff
     0000966F  A$pff$1508                         pff
     00009672  A$pff$1513                         pff
     00009673  A$pff$1514                         pff
     00009675  A$pff$1515                         pff
     00009678  A$pff$1520                         pff
ASxxxx Linker V03.00 + NoICE + sdld,  page 78.
Hexadecimal  [32-Bits]

Area                                    Addr        Size        Decimal Bytes (Attributes)
--------------------------------        ----        ----        ------- ----- ------------
CODE                                0000810D    00001FDA =        8154. bytes (REL,CON)

      Value  Global                              Global Defined In Module
      -----  --------------------------------   ------------------------
     00009678  C$pff.c$672$4_0$356                pff
     0000967A  A$pff$1521                         pff
     0000967C  A$pff$1523                         pff
     0000967E  A$pff$1524                         pff
     00009680  A$pff$1528                         pff
     00009680  C$pff.c$673$4_0$356                pff
     00009683  A$pff$1536                         pff
     00009683  C$pff.c$683$4_0$358                pff
     00009683  C$pff.c$684$4_0$358                pff
     00009685  A$pff$1538                         pff
     00009687  A$pff$1540                         pff
     00009688  A$pff$1541                         pff
     00009689  A$pff$1542                         pff
     0000968C  A$pff$1544                         pff
     0000968E  A$pff$1545                         pff
     0000968F  A$pff$1547                         pff
     00009692  A$pff$1551                         pff
     00009694  A$pff$1555                         pff
     00009694  C$pff.c$687$1_0$353                pff
     00009695  A$pff$1556                         pff
     00009696  A$pff$1557                         pff
     00009699  A$pff$1559                         pff
     0000969B  A$pff$1563                         pff
     0000969B  C$pff.c$689$1_0$353                pff
     0000969D  A$pff$1564                         pff
     000096A1  A$pff$1566                         pff
     000096A3  A$pff$1567                         pff
     000096A5  A$pff$1568                         pff
     000096A8  A$pff$1571                         pff
     000096A9  A$pff$1572                         pff
     000096AA  A$pff$1574                         pff
     000096AD  A$pff$1578                         pff
     000096AE  A$pff$1583                         pff
     000096AF  A$pff$1585                         pff
     000096B1  A$pff$1589                         pff
     000096B1  C$pff.c$691$1_0$353                pff
     000096B2  A$pff$1595                         pff
     000096B4  A$pff$1598                         pff
     000096B4  C$pff.c$692$1_0$353                pff
     000096B4  XFpff$create_name$0$0              pff
     000096B5  A$pff$1609                         pff
     000096B5  C$pff.c$742$1_0$360                pff
     000096B5  Fpff$follow_path$0$0               pff
     000096B7  A$pff$1613                         pff
     000096B7  C$pff.c$751$1_0$360                pff
     000096B9  A$pff$1617                         pff
     000096BA  A$pff$1619                         pff
     000096BC  A$pff$1620                         pff
     000096BE  A$pff$1621                         pff
     000096C1  A$pff$1623                         pff
     000096C4  A$pff$1627                         pff
ASxxxx Linker V03.00 + NoICE + sdld,  page 79.
Hexadecimal  [32-Bits]

Area                                    Addr        Size        Decimal Bytes (Attributes)
--------------------------------        ----        ----        ------- ----- ------------
CODE                                0000810D    00001FDA =        8154. bytes (REL,CON)

      Value  Global                              Global Defined In Module
      -----  --------------------------------   ------------------------
     000096C5  A$pff$1629                         pff
     000096C7  A$pff$1631                         pff
     000096CA  A$pff$1635                         pff
     000096CC  A$pff$1639                         pff
     000096CC  C$pff.c$752$1_0$360                pff
     000096CE  A$pff$1641                         pff
     000096CF  A$pff$1643                         pff
     000096D1  A$pff$1644                         pff
     000096D3  A$pff$1645                         pff
     000096D6  A$pff$1647                         pff
     000096D9  A$pff$1651                         pff
     000096DB  A$pff$1652                         pff
     000096DC  A$pff$1654                         pff
     000096DE  A$pff$1660                         pff
     000096DE  C$pff.c$753$1_0$360                pff
     000096E0  A$pff$1661                         pff
     000096E2  A$pff$1663                         pff
     000096E4  A$pff$1664                         pff
     000096E7  A$pff$1666                         pff
     000096E9  A$pff$1667                         pff
     000096EB  A$pff$1668                         pff
     000096EC  A$pff$1672                         pff
     000096EC  C$pff.c$755$1_0$360                pff
     000096EE  A$pff$1674                         pff
     000096EF  A$pff$1677                         pff
     000096F1  A$pff$1678                         pff
     000096F3  A$pff$1679                         pff
     000096F6  A$pff$1685                         pff
     000096F6  C$pff.c$756$2_0$361                pff
     000096F8  A$pff$1686                         pff
     000096F9  A$pff$1688                         pff
     000096FC  A$pff$1689                         pff
     000096FD  A$pff$1691                         pff
     000096FF  A$pff$1695                         pff
     000096FF  C$pff.c$757$2_0$361                pff
     00009701  A$pff$1697                         pff
     00009702  A$pff$1699                         pff
     00009705  A$pff$1703                         pff
     00009707  A$pff$1704                         pff
     00009709  A$pff$1706                         pff
     0000970B  A$pff$1707                         pff
     0000970D  A$pff$1709                         pff
     0000970F  A$pff$1710                         pff
     00009711  A$pff$1718                         pff
     00009711  C$pff.c$761$4_0$364                pff
     00009712  A$pff$1719                         pff
     00009715  A$pff$1720                         pff
     00009716  A$pff$1722                         pff
     00009718  A$pff$1723                         pff
     00009719  A$pff$1725                         pff
     0000971C  A$pff$1726                         pff
ASxxxx Linker V03.00 + NoICE + sdld,  page 80.
Hexadecimal  [32-Bits]

Area                                    Addr        Size        Decimal Bytes (Attributes)
--------------------------------        ----        ----        ------- ----- ------------
CODE                                0000810D    00001FDA =        8154. bytes (REL,CON)

      Value  Global                              Global Defined In Module
      -----  --------------------------------   ------------------------
     0000971E  A$pff$1728                         pff
     00009720  A$pff$1732                         pff
     00009720  C$pff.c$762$4_0$364                pff
     00009722  A$pff$1733                         pff
     00009724  A$pff$1734                         pff
     00009727  A$pff$1739                         pff
     00009727  C$pff.c$763$4_0$364                pff
     00009729  A$pff$1740                         pff
     0000972A  A$pff$1742                         pff
     0000972C  A$pff$1743                         pff
     0000972D  A$pff$1745                         pff
     00009730  A$pff$1746                         pff
     00009732  A$pff$1748                         pff
     00009734  A$pff$1752                         pff
     00009734  C$pff.c$764$4_0$364                pff
     00009736  A$pff$1753                         pff
     00009738  A$pff$1754                         pff
     0000973B  A$pff$1759                         pff
     0000973B  C$pff.c$765$4_0$364                pff
     0000973D  A$pff$1760                         pff
     0000973F  A$pff$1763                         pff
     00009741  A$pff$1765                         pff
     00009742  A$pff$1766                         pff
     00009744  A$pff$1767                         pff
     00009747  A$pff$1772                         pff
     00009747  C$pff.c$766$4_0$364                pff
     00009749  A$pff$1773                         pff
     0000974B  A$pff$1775                         pff
     0000974D  A$pff$1776                         pff
     0000974F  A$pff$1777                         pff
     00009752  A$pff$1783                         pff
     00009752  C$pff.c$767$5_0$365                pff
     00009754  A$pff$1784                         pff
     00009756  A$pff$1786                         pff
     00009759  A$pff$1792                         pff
     00009759  C$pff.c$769$4_0$364                pff
     0000975B  A$pff$1793                         pff
     0000975E  A$pff$1794                         pff
     00009760  A$pff$1796                         pff
     00009762  A$pff$1797                         pff
     00009763  A$pff$1799                         pff
     00009766  A$pff$1800                         pff
     00009768  A$pff$1801                         pff
     0000976A  A$pff$1803                         pff
     0000976C  A$pff$1804                         pff
     0000976F  A$pff$1805                         pff
     00009771  A$pff$1806                         pff
     00009773  A$pff$1808                         pff
     00009776  A$pff$1814                         pff
     00009776  C$pff.c$773$1_0$360                pff
     00009778  A$pff$1820                         pff
ASxxxx Linker V03.00 + NoICE + sdld,  page 81.
Hexadecimal  [32-Bits]

Area                                    Addr        Size        Decimal Bytes (Attributes)
--------------------------------        ----        ----        ------- ----- ------------
CODE                                0000810D    00001FDA =        8154. bytes (REL,CON)

      Value  Global                              Global Defined In Module
      -----  --------------------------------   ------------------------
     0000977A  A$pff$1823                         pff
     0000977A  C$pff.c$774$1_0$360                pff
     0000977A  XFpff$follow_path$0$0              pff
     0000977B  A$pff$1837                         pff
     0000977B  C$pff.c$783$1_0$367                pff
     0000977B  C$pff.c$788$1_0$367                pff
     0000977B  Fpff$check_fs$0$0                  pff
     0000977D  A$pff$1838                         pff
     0000977F  A$pff$1840                         pff
     00009781  A$pff$1841                         pff
     00009783  A$pff$1843                         pff
     00009785  A$pff$1844                         pff
     00009786  A$pff$1845                         pff
     00009788  A$pff$1846                         pff
     00009789  A$pff$1848                         pff
     0000978B  A$pff$1849                         pff
     0000978C  A$pff$1851                         pff
     0000978F  A$pff$1852                         pff
     00009791  A$pff$1854                         pff
     00009792  A$pff$1855                         pff
     00009794  A$pff$1856                         pff
     00009797  A$pff$1861                         pff
     00009797  C$pff.c$789$2_0$368                pff
     00009799  A$pff$1862                         pff
     0000979C  A$pff$1868                         pff
     0000979C  C$pff.c$791$1_0$367                pff
     0000979E  A$pff$1869                         pff
     0000979F  A$pff$1871                         pff
     000097A2  A$pff$1872                         pff
     000097A4  A$pff$1876                         pff
     000097A7  A$pff$1877                         pff
     000097A9  A$pff$1878                         pff
     000097AC  A$pff$1884                         pff
     000097AC  C$pff.c$792$2_0$369                pff
     000097AE  A$pff$1885                         pff
     000097B1  A$pff$1891                         pff
     000097B1  C$pff.c$798$1_0$367                pff
     000097B3  A$pff$1892                         pff
     000097B5  A$pff$1894                         pff
     000097B7  A$pff$1895                         pff
     000097B9  A$pff$1897                         pff
     000097BB  A$pff$1898                         pff
     000097BC  A$pff$1899                         pff
     000097BE  A$pff$1900                         pff
     000097BF  A$pff$1902                         pff
     000097C1  A$pff$1903                         pff
     000097C2  A$pff$1905                         pff
     000097C5  A$pff$1906                         pff
     000097C7  A$pff$1908                         pff
     000097C8  A$pff$1909                         pff
     000097CA  A$pff$1910                         pff
ASxxxx Linker V03.00 + NoICE + sdld,  page 82.
Hexadecimal  [32-Bits]

Area                                    Addr        Size        Decimal Bytes (Attributes)
--------------------------------        ----        ----        ------- ----- ------------
CODE                                0000810D    00001FDA =        8154. bytes (REL,CON)

      Value  Global                              Global Defined In Module
      -----  --------------------------------   ------------------------
     000097CD  A$pff$1913                         pff
     000097CF  A$pff$1914                         pff
     000097D0  A$pff$1916                         pff
     000097D3  A$pff$1917                         pff
     000097D5  A$pff$1921                         pff
     000097D8  A$pff$1922                         pff
     000097DA  A$pff$1923                         pff
     000097DD  A$pff$1925                         pff
     000097E0  A$pff$1931                         pff
     000097E0  C$pff.c$799$2_0$371                pff
     000097E1  A$pff$1932                         pff
     000097E4  A$pff$1938                         pff
     000097E4  C$pff.c$801$1_0$367                pff
     000097E6  A$pff$1946                         pff
     000097E6  C$pff.c$802$1_0$367                pff
     000097E6  XFpff$check_fs$0$0                 pff
     000097E7  A$pff$1957                         pff
     000097E7  C$pff.c$819$1_0$373                pff
     000097E7  G$pf_mount$0$0                     pff
     000097E7  _pf_mount                          pff
     000097E9  A$pff$1961                         pff
     000097E9  C$pff.c$827$1_0$373                pff
     000097EA  A$pff$1962                         pff
     000097ED  A$pff$1966                         pff
     000097ED  C$pff.c$829$1_0$373                pff
     000097F0  A$pff$1968                         pff
     000097F1  A$pff$1969                         pff
     000097F3  A$pff$1970                         pff
     000097F6  A$pff$1976                         pff
     000097F6  C$pff.c$830$2_0$374                pff
     000097F8  A$pff$1977                         pff
     000097FB  A$pff$1983                         pff
     000097FB  C$pff.c$834$1_0$373                pff
     000097FC  A$pff$1984                         pff
     000097FE  A$pff$1985                         pff
     00009800  A$pff$1991                         pff
     00009800  C$pff.c$835$1_0$373                pff
     00009801  A$pff$1992                         pff
     00009802  A$pff$1993                         pff
     00009803  A$pff$1994                         pff
     00009804  A$pff$1996                         pff
     00009805  A$pff$1997                         pff
     00009808  A$pff$1998                         pff
     00009809  A$pff$2000                         pff
     0000980C  A$pff$2001                         pff
     0000980E  A$pff$2003                         pff
     00009810  A$pff$2007                         pff
     00009810  C$pff.c$836$1_0$373                pff
     00009812  A$pff$2008                         pff
     00009813  A$pff$2009                         pff
     00009815  A$pff$2010                         pff
ASxxxx Linker V03.00 + NoICE + sdld,  page 83.
Hexadecimal  [32-Bits]

Area                                    Addr        Size        Decimal Bytes (Attributes)
--------------------------------        ----        ----        ------- ----- ------------
CODE                                0000810D    00001FDA =        8154. bytes (REL,CON)

      Value  Global                              Global Defined In Module
      -----  --------------------------------   ------------------------
     00009818  A$pff$2012                         pff
     0000981B  A$pff$2020                         pff
     0000981B  C$pff.c$838$2_0$375                pff
     0000981D  A$pff$2021                         pff
     0000981F  A$pff$2023                         pff
     00009821  A$pff$2024                         pff
     00009823  A$pff$2026                         pff
     00009825  A$pff$2027                         pff
     00009826  A$pff$2028                         pff
     00009828  A$pff$2029                         pff
     00009829  A$pff$2031                         pff
     0000982A  A$pff$2032                         pff
     0000982D  A$pff$2033                         pff
     0000982E  A$pff$2035                         pff
     00009831  A$pff$2036                         pff
     00009833  A$pff$2038                         pff
     00009834  A$pff$2039                         pff
     00009836  A$pff$2040                         pff
     00009839  A$pff$2045                         pff
     00009839  C$pff.c$839$3_0$376                pff
     0000983B  A$pff$2046                         pff
     0000983D  A$pff$2048                         pff
     00009840  A$pff$2055                         pff
     00009840  C$pff.c$841$3_0$377                pff
     00009842  A$pff$2057                         pff
     00009843  A$pff$2058                         pff
     00009845  A$pff$2059                         pff
     00009848  A$pff$2065                         pff
     00009848  C$pff.c$842$4_0$378                pff
     00009849  A$pff$2066                         pff
     0000984C  A$pff$2070                         pff
     0000984D  A$pff$2072                         pff
     00009850  A$pff$2073                         pff
     00009852  A$pff$2075                         pff
     00009854  A$pff$2076                         pff
     00009856  A$pff$2082                         pff
     00009856  C$pff.c$843$4_0$378                pff
     00009858  A$pff$2083                         pff
     00009859  A$pff$2084                         pff
     0000985B  A$pff$2085                         pff
     0000985C  A$pff$2087                         pff
     0000985D  A$pff$2088                         pff
     00009860  A$pff$2089                         pff
     00009861  A$pff$2091                         pff
     00009864  A$pff$2092                         pff
     00009866  A$pff$2094                         pff
     00009868  A$pff$2100                         pff
     00009868  C$pff.c$847$1_0$373                pff
     0000986A  A$pff$2101                         pff
     0000986C  A$pff$2102                         pff
     0000986E  A$pff$2103                         pff
ASxxxx Linker V03.00 + NoICE + sdld,  page 84.
Hexadecimal  [32-Bits]

Area                                    Addr        Size        Decimal Bytes (Attributes)
--------------------------------        ----        ----        ------- ----- ------------
CODE                                0000810D    00001FDA =        8154. bytes (REL,CON)

      Value  Global                              Global Defined In Module
      -----  --------------------------------   ------------------------
     00009871  A$pff$2105                         pff
     00009874  A$pff$2109                         pff
     00009876  A$pff$2110                         pff
     00009879  A$pff$2116                         pff
     00009879  C$pff.c$848$1_0$373                pff
     0000987B  A$pff$2117                         pff
     0000987D  A$pff$2118                         pff
     00009880  A$pff$2121                         pff
     00009882  A$pff$2122                         pff
     00009885  A$pff$2130                         pff
     00009885  C$pff.c$851$1_0$373                pff
     00009887  A$pff$2131                         pff
     00009889  A$pff$2133                         pff
     0000988B  A$pff$2134                         pff
     0000988D  A$pff$2136                         pff
     0000988F  A$pff$2137                         pff
     00009890  A$pff$2138                         pff
     00009892  A$pff$2139                         pff
     00009893  A$pff$2141                         pff
     00009894  A$pff$2142                         pff
     00009897  A$pff$2143                         pff
     00009898  A$pff$2145                         pff
     0000989B  A$pff$2146                         pff
     0000989D  A$pff$2148                         pff
     0000989E  A$pff$2149                         pff
     000098A0  A$pff$2150                         pff
     000098A3  A$pff$2153                         pff
     000098A5  A$pff$2154                         pff
     000098A8  A$pff$2160                         pff
     000098A8  C$pff.c$853$1_0$373                pff
     000098A9  A$pff$2161                         pff
     000098AC  A$pff$2165                         pff
     000098AD  A$pff$2167                         pff
     000098B0  A$pff$2168                         pff
     000098B2  A$pff$2171                         pff
     000098B4  A$pff$2173                         pff
     000098B6  A$pff$2174                         pff
     000098B8  A$pff$2178                         pff
     000098B8  C$pff.c$854$1_0$373                pff
     000098BA  A$pff$2179                         pff
     000098BC  A$pff$2180                         pff
     000098BE  A$pff$2181                         pff
     000098C0  A$pff$2183                         pff
     000098C3  A$pff$2186                         pff
     000098C4  A$pff$2187                         pff
     000098C7  A$pff$2191                         pff
     000098C8  A$pff$2193                         pff
     000098CB  A$pff$2194                         pff
     000098CD  A$pff$2196                         pff
     000098CF  A$pff$2197                         pff
     000098D1  A$pff$2205                         pff
ASxxxx Linker V03.00 + NoICE + sdld,  page 85.
Hexadecimal  [32-Bits]

Area                                    Addr        Size        Decimal Bytes (Attributes)
--------------------------------        ----        ----        ------- ----- ------------
CODE                                0000810D    00001FDA =        8154. bytes (REL,CON)

      Value  Global                              Global Defined In Module
      -----  --------------------------------   ------------------------
     000098D1  C$pff.c$856$1_0$373                pff
     000098D3  A$pff$2208                         pff
     000098D4  A$pff$2209                         pff
     000098D5  A$pff$2210                         pff
     000098D7  A$pff$2212                         pff
     000098D8  A$pff$2213                         pff
     000098DA  A$pff$2215                         pff
     000098DC  A$pff$2216                         pff
     000098DD  A$pff$2217                         pff
     000098DF  A$pff$2218                         pff
     000098E0  A$pff$2220                         pff
     000098E3  A$pff$2221                         pff
     000098E5  A$pff$2223                         pff
     000098E7  A$pff$2224                         pff
     000098E9  A$pff$2228                         pff
     000098E9  C$pff.c$857$1_0$373                pff
     000098EB  A$pff$2229                         pff
     000098ED  A$pff$2231                         pff
     000098EF  A$pff$2232                         pff
     000098F2  A$pff$2233                         pff
     000098F4  A$pff$2235                         pff
     000098F5  A$pff$2236                         pff
     000098F8  A$pff$2240                         pff
     000098F9  A$pff$2242                         pff
     000098FC  A$pff$2243                         pff
     000098FE  A$pff$2246                         pff
     000098FF  A$pff$2247                         pff
     00009900  A$pff$2248                         pff
     00009901  A$pff$2250                         pff
     00009904  A$pff$2251                         pff
     00009906  A$pff$2252                         pff
     00009908  A$pff$2253                         pff
     00009909  A$pff$2254                         pff
     0000990B  A$pff$2255                         pff
     0000990D  A$pff$2257                         pff
     0000990F  A$pff$2258                         pff
     00009911  A$pff$2259                         pff
     00009913  A$pff$2260                         pff
     00009914  A$pff$2264                         pff
     00009914  C$pff.c$858$1_0$373                pff
     00009916  A$pff$2265                         pff
     00009917  A$pff$2266                         pff
     00009918  A$pff$2267                         pff
     0000991A  A$pff$2269                         pff
     0000991C  A$pff$2271                         pff
     0000991E  A$pff$2272                         pff
     0000991F  A$pff$2276                         pff
     0000991F  C$pff.c$859$1_0$373                pff
     00009921  A$pff$2277                         pff
     00009924  A$pff$2278                         pff
     00009926  A$pff$2280                         pff
ASxxxx Linker V03.00 + NoICE + sdld,  page 86.
Hexadecimal  [32-Bits]

Area                                    Addr        Size        Decimal Bytes (Attributes)
--------------------------------        ----        ----        ------- ----- ------------
CODE                                0000810D    00001FDA =        8154. bytes (REL,CON)

      Value  Global                              Global Defined In Module
      -----  --------------------------------   ------------------------
     00009927  A$pff$2281                         pff
     0000992A  A$pff$2285                         pff
     0000992B  A$pff$2287                         pff
     0000992E  A$pff$2288                         pff
     00009930  A$pff$2290                         pff
     00009932  A$pff$2291                         pff
     00009934  A$pff$2295                         pff
     00009934  C$pff.c$860$1_0$373                pff
     00009935  A$pff$2296                         pff
     00009938  A$pff$2300                         pff
     00009939  A$pff$2302                         pff
     0000993C  A$pff$2303                         pff
     0000993E  A$pff$2306                         pff
     00009940  A$pff$2308                         pff
     00009942  A$pff$2309                         pff
     00009944  A$pff$2313                         pff
     00009944  C$pff.c$861$1_0$373                pff
     00009945  A$pff$2314                         pff
     00009947  A$pff$2315                         pff
     00009949  A$pff$2316                         pff
     0000994B  A$pff$2318                         pff
     0000994E  A$pff$2323                         pff
     0000994F  A$pff$2324                         pff
     00009952  A$pff$2325                         pff
     00009953  A$pff$2327                         pff
     00009956  A$pff$2328                         pff
     00009958  A$pff$2330                         pff
     0000995A  A$pff$2331                         pff
     0000995C  A$pff$2337                         pff
     0000995C  C$pff.c$863$1_0$373                pff
     0000995D  A$pff$2338                         pff
     0000995E  A$pff$2339                         pff
     0000995F  A$pff$2343                         pff
     00009960  A$pff$2345                         pff
     00009963  A$pff$2346                         pff
     00009965  A$pff$2349                         pff
     00009967  A$pff$2350                         pff
     00009969  A$pff$2351                         pff
     0000996B  A$pff$2353                         pff
     0000996D  A$pff$2354                         pff
     00009970  A$pff$2355                         pff
     00009972  A$pff$2356                         pff
     00009974  A$pff$2357                         pff
     00009975  A$pff$2358                         pff
     00009977  A$pff$2359                         pff
     00009979  A$pff$2360                         pff
     0000997A  A$pff$2361                         pff
     0000997B  A$pff$2363                         pff
     0000997E  A$pff$2364                         pff
     00009980  A$pff$2365                         pff
     00009982  A$pff$2366                         pff
ASxxxx Linker V03.00 + NoICE + sdld,  page 87.
Hexadecimal  [32-Bits]

Area                                    Addr        Size        Decimal Bytes (Attributes)
--------------------------------        ----        ----        ------- ----- ------------
CODE                                0000810D    00001FDA =        8154. bytes (REL,CON)

      Value  Global                              Global Defined In Module
      -----  --------------------------------   ------------------------
     00009983  A$pff$2367                         pff
     00009985  A$pff$2369                         pff
     00009987  A$pff$2370                         pff
     00009988  A$pff$2374                         pff
     00009989  A$pff$2375                         pff
     0000998A  A$pff$2376                         pff
     0000998B  A$pff$2377                         pff
     0000998C  A$pff$2380                         pff
     0000998E  A$pff$2381                         pff
     0000998F  A$pff$2382                         pff
     00009991  A$pff$2384                         pff
     00009994  A$pff$2385                         pff
     00009996  A$pff$2386                         pff
     00009997  A$pff$2387                         pff
     00009999  A$pff$2388                         pff
     0000999A  A$pff$2389                         pff
     0000999C  A$pff$2390                         pff
     0000999D  A$pff$2391                         pff
     0000999F  A$pff$2392                         pff
     000099A0  A$pff$2393                         pff
     000099A2  A$pff$2394                         pff
     000099A4  A$pff$2398                         pff
     000099A4  C$pff.c$864$1_0$373                pff
     000099A6  A$pff$2399                         pff
     000099A7  A$pff$2402                         pff
     000099A8  A$pff$2403                         pff
     000099A9  A$pff$2404                         pff
     000099AB  A$pff$2406                         pff
     000099AC  A$pff$2407                         pff
     000099AE  A$pff$2409                         pff
     000099B0  A$pff$2410                         pff
     000099B1  A$pff$2411                         pff
     000099B3  A$pff$2412                         pff
     000099B4  A$pff$2414                         pff
     000099B7  A$pff$2415                         pff
     000099B9  A$pff$2416                         pff
     000099BB  A$pff$2418                         pff
     000099BE  A$pff$2419                         pff
     000099BF  A$pff$2420                         pff
     000099C1  A$pff$2421                         pff
     000099C3  A$pff$2422                         pff
     000099C4  A$pff$2425                         pff
     000099C6  A$pff$2429                         pff
     000099C6  C$pff.c$865$1_0$373                pff
     000099C8  A$pff$2430                         pff
     000099CB  A$pff$2432                         pff
     000099CD  A$pff$2433                         pff
     000099CF  A$pff$2434                         pff
     000099D1  A$pff$2435                         pff
     000099D3  A$pff$2436                         pff
     000099D4  A$pff$2440                         pff
ASxxxx Linker V03.00 + NoICE + sdld,  page 88.
Hexadecimal  [32-Bits]

Area                                    Addr        Size        Decimal Bytes (Attributes)
--------------------------------        ----        ----        ------- ----- ------------
CODE                                0000810D    00001FDA =        8154. bytes (REL,CON)

      Value  Global                              Global Defined In Module
      -----  --------------------------------   ------------------------
     000099D4  C$pff.c$867$1_0$373                pff
     000099D5  A$pff$2445                         pff
     000099D5  C$pff.c$870$1_0$373                pff
     000099D9  A$pff$2446                         pff
     000099DA  A$pff$2447                         pff
     000099DC  A$pff$2448                         pff
     000099DE  A$pff$2449                         pff
     000099E0  A$pff$2450                         pff
     000099E2  A$pff$2451                         pff
     000099E3  A$pff$2452                         pff
     000099E5  A$pff$2453                         pff
     000099E8  A$pff$2457                         pff
     000099EA  A$pff$2463                         pff
     000099EA  C$pff.c$871$1_0$373                pff
     000099EB  A$pff$2464                         pff
     000099ED  A$pff$2465                         pff
     000099F0  A$pff$2468                         pff
     000099F2  A$pff$2469                         pff
     000099F5  A$pff$2475                         pff
     000099F5  C$pff.c$872$1_0$373                pff
     000099F7  A$pff$2476                         pff
     000099F8  A$pff$2480                         pff
     000099F8  C$pff.c$875$2_0$379                pff
     000099FA  A$pff$2481                         pff
     000099FD  A$pff$2482                         pff
     000099FF  A$pff$2484                         pff
     00009A00  A$pff$2485                         pff
     00009A03  A$pff$2489                         pff
     00009A04  A$pff$2491                         pff
     00009A07  A$pff$2492                         pff
     00009A09  A$pff$2493                         pff
     00009A0B  A$pff$2495                         pff
     00009A0D  A$pff$2496                         pff
     00009A10  A$pff$2497                         pff
     00009A12  A$pff$2498                         pff
     00009A14  A$pff$2502                         pff
     00009A14  C$pff.c$879$1_0$373                pff
     00009A16  A$pff$2503                         pff
     00009A19  A$pff$2504                         pff
     00009A1B  A$pff$2506                         pff
     00009A1D  A$pff$2507                         pff
     00009A1F  A$pff$2508                         pff
     00009A22  A$pff$2509                         pff
     00009A23  A$pff$2511                         pff
     00009A26  A$pff$2512                         pff
     00009A28  A$pff$2513                         pff
     00009A29  A$pff$2514                         pff
     00009A2B  A$pff$2515                         pff
     00009A2D  A$pff$2516                         pff
     00009A2E  A$pff$2517                         pff
     00009A30  A$pff$2519                         pff
ASxxxx Linker V03.00 + NoICE + sdld,  page 89.
Hexadecimal  [32-Bits]

Area                                    Addr        Size        Decimal Bytes (Attributes)
--------------------------------        ----        ----        ------- ----- ------------
CODE                                0000810D    00001FDA =        8154. bytes (REL,CON)

      Value  Global                              Global Defined In Module
      -----  --------------------------------   ------------------------
     00009A32  A$pff$2520                         pff
     00009A33  A$pff$2524                         pff
     00009A34  A$pff$2525                         pff
     00009A35  A$pff$2526                         pff
     00009A36  A$pff$2527                         pff
     00009A37  A$pff$2530                         pff
     00009A38  A$pff$2531                         pff
     00009A39  A$pff$2532                         pff
     00009A3B  A$pff$2534                         pff
     00009A3E  A$pff$2535                         pff
     00009A3F  A$pff$2536                         pff
     00009A40  A$pff$2537                         pff
     00009A42  A$pff$2538                         pff
     00009A44  A$pff$2539                         pff
     00009A45  A$pff$2540                         pff
     00009A47  A$pff$2541                         pff
     00009A49  A$pff$2543                         pff
     00009A4B  A$pff$2544                         pff
     00009A4D  A$pff$2545                         pff
     00009A4F  A$pff$2546                         pff
     00009A50  A$pff$2550                         pff
     00009A50  C$pff.c$881$1_0$373                pff
     00009A52  A$pff$2551                         pff
     00009A53  A$pff$2553                         pff
     00009A54  A$pff$2557                         pff
     00009A54  C$pff.c$882$1_0$373                pff
     00009A56  A$pff$2559                         pff
     00009A59  A$pff$2563                         pff
     00009A59  C$pff.c$884$1_0$373                pff
     00009A5A  A$pff$2569                         pff
     00009A5C  A$pff$2572                         pff
     00009A5C  C$pff.c$885$1_0$373                pff
     00009A5C  XG$pf_mount$0$0                    pff
     00009A5D  A$pff$2583                         pff
     00009A5D  C$pff.c$894$1_0$382                pff
     00009A5D  G$pf_open$0$0                      pff
     00009A5D  _pf_open                           pff
     00009A5F  A$pff$2587                         pff
     00009A5F  C$pff.c$901$2_0$382                pff
     00009A62  A$pff$2588                         pff
     00009A64  A$pff$2592                         pff
     00009A64  C$pff.c$904$1_0$382                pff
     00009A66  A$pff$2593                         pff
     00009A68  A$pff$2594                         pff
     00009A6B  A$pff$2597                         pff
     00009A6D  A$pff$2598                         pff
     00009A70  A$pff$2604                         pff
     00009A70  C$pff.c$906$1_0$382                pff
     00009A72  A$pff$2605                         pff
     00009A73  A$pff$2606                         pff
     00009A75  A$pff$2608                         pff
ASxxxx Linker V03.00 + NoICE + sdld,  page 90.
Hexadecimal  [32-Bits]

Area                                    Addr        Size        Decimal Bytes (Attributes)
--------------------------------        ----        ----        ------- ----- ------------
CODE                                0000810D    00001FDA =        8154. bytes (REL,CON)

      Value  Global                              Global Defined In Module
      -----  --------------------------------   ------------------------
     00009A77  A$pff$2609                         pff
     00009A78  A$pff$2614                         pff
     00009A78  C$pff.c$907$1_0$382                pff
     00009A79  A$pff$2615                         pff
     00009A7C  A$pff$2619                         pff
     00009A7E  A$pff$2620                         pff
     00009A82  A$pff$2621                         pff
     00009A83  A$pff$2629                         pff
     00009A83  C$pff.c$908$1_0$382                pff
     00009A85  A$pff$2630                         pff
     00009A86  A$pff$2632                         pff
     00009A87  A$pff$2633                         pff
     00009A8A  A$pff$2634                         pff
     00009A8B  A$pff$2636                         pff
     00009A8C  A$pff$2637                         pff
     00009A8F  A$pff$2638                         pff
     00009A90  A$pff$2640                         pff
     00009A93  A$pff$2641                         pff
     00009A95  A$pff$2643                         pff
     00009A96  A$pff$2647                         pff
     00009A96  C$pff.c$909$1_0$382                pff
     00009A97  A$pff$2648                         pff
     00009A99  A$pff$2649                         pff
     00009A9C  A$pff$2652                         pff
     00009A9D  A$pff$2653                         pff
     00009AA0  A$pff$2660                         pff
     00009AA0  C$pff.c$910$1_0$382                pff
     00009AA2  A$pff$2662                         pff
     00009AA3  A$pff$2663                         pff
     00009AA5  A$pff$2664                         pff
     00009AA8  A$pff$2668                         pff
     00009AAA  A$pff$2670                         pff
     00009AAC  A$pff$2671                         pff
     00009AAE  A$pff$2672                         pff
     00009AB1  A$pff$2678                         pff
     00009AB3  A$pff$2679                         pff
     00009AB6  A$pff$2685                         pff
     00009AB6  C$pff.c$912$1_0$382                pff
     00009AB8  A$pff$2686                         pff
     00009ABB  A$pff$2687                         pff
     00009ABD  A$pff$2691                         pff
     00009ABE  A$pff$2692                         pff
     00009AC1  A$pff$2693                         pff
     00009AC2  A$pff$2695                         pff
     00009AC5  A$pff$2696                         pff
     00009AC7  A$pff$2697                         pff
     00009AC9  A$pff$2699                         pff
     00009ACB  A$pff$2700                         pff
     00009ACE  A$pff$2701                         pff
     00009AD0  A$pff$2702                         pff
     00009AD2  A$pff$2706                         pff
ASxxxx Linker V03.00 + NoICE + sdld,  page 91.
Hexadecimal  [32-Bits]

Area                                    Addr        Size        Decimal Bytes (Attributes)
--------------------------------        ----        ----        ------- ----- ------------
CODE                                0000810D    00001FDA =        8154. bytes (REL,CON)

      Value  Global                              Global Defined In Module
      -----  --------------------------------   ------------------------
     00009AD2  C$pff.c$913$1_0$382                pff
     00009AD4  A$pff$2707                         pff
     00009AD7  A$pff$2708                         pff
     00009AD9  A$pff$2710                         pff
     00009ADA  A$pff$2711                         pff
     00009ADD  A$pff$2715                         pff
     00009ADE  A$pff$2717                         pff
     00009AE1  A$pff$2718                         pff
     00009AE3  A$pff$2719                         pff
     00009AE5  A$pff$2721                         pff
     00009AE7  A$pff$2722                         pff
     00009AEA  A$pff$2723                         pff
     00009AEC  A$pff$2724                         pff
     00009AEE  A$pff$2728                         pff
     00009AEE  C$pff.c$914$1_0$382                pff
     00009AF0  A$pff$2729                         pff
     00009AF3  A$pff$2731                         pff
     00009AF5  A$pff$2732                         pff
     00009AF7  A$pff$2733                         pff
     00009AF8  A$pff$2737                         pff
     00009AF8  C$pff.c$915$1_0$382                pff
     00009AFA  A$pff$2738                         pff
     00009AFC  A$pff$2739                         pff
     00009AFD  A$pff$2743                         pff
     00009AFD  C$pff.c$917$1_0$382                pff
     00009AFE  A$pff$2749                         pff
     00009B00  A$pff$2752                         pff
     00009B00  C$pff.c$918$1_0$382                pff
     00009B00  XG$pf_open$0$0                     pff
     00009B01  A$pff$2763                         pff
     00009B01  C$pff.c$928$1_0$384                pff
     00009B01  G$pf_read$0$0                      pff
     00009B01  _pf_read                           pff
     00009B03  A$pff$2768                         pff
     00009B03  C$pff.c$938$2_0$384                pff
     00009B05  A$pff$2770                         pff
     00009B07  A$pff$2774                         pff
     00009B07  C$pff.c$939$2_0$384                pff
     00009B0A  A$pff$2775                         pff
     00009B0C  A$pff$2779                         pff
     00009B0C  C$pff.c$942$1_0$384                pff
     00009B0E  A$pff$2780                         pff
     00009B10  A$pff$2782                         pff
     00009B12  A$pff$2783                         pff
     00009B14  A$pff$2784                         pff
     00009B15  A$pff$2788                         pff
     00009B15  C$pff.c$943$1_0$384                pff
     00009B17  A$pff$2789                         pff
     00009B19  A$pff$2790                         pff
     00009B1C  A$pff$2793                         pff
     00009B1E  A$pff$2794                         pff
ASxxxx Linker V03.00 + NoICE + sdld,  page 92.
Hexadecimal  [32-Bits]

Area                                    Addr        Size        Decimal Bytes (Attributes)
--------------------------------        ----        ----        ------- ----- ------------
CODE                                0000810D    00001FDA =        8154. bytes (REL,CON)

      Value  Global                              Global Defined In Module
      -----  --------------------------------   ------------------------
     00009B21  A$pff$2800                         pff
     00009B21  C$pff.c$944$1_0$384                pff
     00009B23  A$pff$2801                         pff
     00009B24  A$pff$2802                         pff
     00009B26  A$pff$2804                         pff
     00009B28  A$pff$2805                         pff
     00009B29  A$pff$2807                         pff
     00009B2A  A$pff$2808                         pff
     00009B2C  A$pff$2809                         pff
     00009B2F  A$pff$2813                         pff
     00009B31  A$pff$2814                         pff
     00009B34  A$pff$2820                         pff
     00009B34  C$pff.c$946$1_0$384                pff
     00009B36  A$pff$2822                         pff
     00009B38  A$pff$2823                         pff
     00009B3B  A$pff$2824                         pff
     00009B3D  A$pff$2825                         pff
     00009B3F  A$pff$2827                         pff
     00009B41  A$pff$2828                         pff
     00009B44  A$pff$2829                         pff
     00009B46  A$pff$2831                         pff
     00009B48  A$pff$2832                         pff
     00009B4A  A$pff$2833                         pff
     00009B4C  A$pff$2834                         pff
     00009B4E  A$pff$2835                         pff
     00009B50  A$pff$2836                         pff
     00009B51  A$pff$2838                         pff
     00009B54  A$pff$2839                         pff
     00009B56  A$pff$2840                         pff
     00009B57  A$pff$2841                         pff
     00009B59  A$pff$2842                         pff
     00009B5A  A$pff$2843                         pff
     00009B5B  A$pff$2844                         pff
     00009B5D  A$pff$2845                         pff
     00009B5E  A$pff$2846                         pff
     00009B60  A$pff$2847                         pff
     00009B61  A$pff$2849                         pff
     00009B63  A$pff$2850                         pff
     00009B64  A$pff$2855                         pff
     00009B64  C$pff.c$947$1_0$384                pff
     00009B66  A$pff$2856                         pff
     00009B68  A$pff$2857                         pff
     00009B6A  A$pff$2858                         pff
     00009B6C  A$pff$2861                         pff
     00009B6E  A$pff$2862                         pff
     00009B70  A$pff$2863                         pff
     00009B72  A$pff$2864                         pff
     00009B74  A$pff$2865                         pff
     00009B75  A$pff$2866                         pff
     00009B77  A$pff$2867                         pff
     00009B78  A$pff$2868                         pff
ASxxxx Linker V03.00 + NoICE + sdld,  page 93.
Hexadecimal  [32-Bits]

Area                                    Addr        Size        Decimal Bytes (Attributes)
--------------------------------        ----        ----        ------- ----- ------------
CODE                                0000810D    00001FDA =        8154. bytes (REL,CON)

      Value  Global                              Global Defined In Module
      -----  --------------------------------   ------------------------
     00009B7A  A$pff$2869                         pff
     00009B7C  A$pff$2870                         pff
     00009B7F  A$pff$2875                         pff
     00009B81  A$pff$2877                         pff
     00009B83  A$pff$2883                         pff
     00009B83  C$pff.c$949$1_0$384                pff
     00009B85  A$pff$2884                         pff
     00009B87  A$pff$2886                         pff
     00009B89  A$pff$2887                         pff
     00009B8C  A$pff$2888                         pff
     00009B8E  A$pff$2890                         pff
     00009B90  A$pff$2891                         pff
     00009B92  A$pff$2893                         pff
     00009B94  A$pff$2894                         pff
     00009B96  A$pff$2896                         pff
     00009B98  A$pff$2897                         pff
     00009B9B  A$pff$2898                         pff
     00009B9D  A$pff$2902                         pff
     00009B9F  A$pff$2903                         pff
     00009BA1  A$pff$2904                         pff
     00009BA4  A$pff$2909                         pff
     00009BA6  A$pff$2910                         pff
     00009BA8  A$pff$2911                         pff
     00009BAB  A$pff$2912                         pff
     00009BAD  A$pff$2913                         pff
     00009BAE  A$pff$2914                         pff
     00009BB0  A$pff$2916                         pff
     00009BB2  A$pff$2917                         pff
     00009BB4  A$pff$2918                         pff
     00009BB6  A$pff$2919                         pff
     00009BB8  A$pff$2920                         pff
     00009BBA  A$pff$2921                         pff
     00009BBB  A$pff$2922                         pff
     00009BBD  A$pff$2924                         pff
     00009BBF  A$pff$2925                         pff
     00009BC1  A$pff$2926                         pff
     00009BC3  A$pff$2927                         pff
     00009BC5  A$pff$2929                         pff
     00009BC8  A$pff$2934                         pff
     00009BC8  C$pff.c$951$3_0$386                pff
     00009BCA  A$pff$2935                         pff
     00009BCC  A$pff$2936                         pff
     00009BCE  A$pff$2937                         pff
     00009BD0  A$pff$2938                         pff
     00009BD2  A$pff$2939                         pff
     00009BD4  A$pff$2940                         pff
     00009BD6  A$pff$2941                         pff
     00009BD8  A$pff$2943                         pff
     00009BDA  A$pff$2944                         pff
     00009BDC  A$pff$2945                         pff
     00009BDE  A$pff$2949                         pff
ASxxxx Linker V03.00 + NoICE + sdld,  page 94.
Hexadecimal  [32-Bits]

Area                                    Addr        Size        Decimal Bytes (Attributes)
--------------------------------        ----        ----        ------- ----- ------------
CODE                                0000810D    00001FDA =        8154. bytes (REL,CON)

      Value  Global                              Global Defined In Module
      -----  --------------------------------   ------------------------
     00009BE0  A$pff$2952                         pff
     00009BE2  A$pff$2953                         pff
     00009BE4  A$pff$2956                         pff
     00009BE6  A$pff$2957                         pff
     00009BE8  A$pff$2959                         pff
     00009BEA  A$pff$2960                         pff
     00009BEC  A$pff$2962                         pff
     00009BEE  A$pff$2966                         pff
     00009BEE  C$pff.c$952$3_0$386                pff
     00009BEF  A$pff$2967                         pff
     00009BF1  A$pff$2968                         pff
     00009BF4  A$pff$2973                         pff
     00009BF4  C$pff.c$953$4_0$387                pff
     00009BF6  A$pff$2974                         pff
     00009BF8  A$pff$2975                         pff
     00009BFA  A$pff$2976                         pff
     00009BFC  A$pff$2978                         pff
     00009BFF  A$pff$2983                         pff
     00009BFF  C$pff.c$954$5_0$388                pff
     00009C01  A$pff$2984                         pff
     00009C03  A$pff$2985                         pff
     00009C06  A$pff$2986                         pff
     00009C08  A$pff$2988                         pff
     00009C0A  A$pff$2989                         pff
     00009C0C  A$pff$2991                         pff
     00009C0F  A$pff$2997                         pff
     00009C0F  C$pff.c$956$5_0$389                pff
     00009C11  A$pff$2998                         pff
     00009C13  A$pff$2999                         pff
     00009C16  A$pff$3000                         pff
     00009C17  A$pff$3002                         pff
     00009C19  A$pff$3003                         pff
     00009C1A  A$pff$3005                         pff
     00009C1D  A$pff$3006                         pff
     00009C1F  A$pff$3007                         pff
     00009C21  A$pff$3009                         pff
     00009C23  A$pff$3016                         pff
     00009C23  C$pff.c$958$4_0$387                pff
     00009C24  A$pff$3017                         pff
     00009C25  A$pff$3018                         pff
     00009C27  A$pff$3019                         pff
     00009C28  A$pff$3020                         pff
     00009C2A  A$pff$3021                         pff
     00009C2B  A$pff$3022                         pff
     00009C2D  A$pff$3023                         pff
     00009C2F  A$pff$3024                         pff
     00009C32  A$pff$3028                         pff
     00009C34  A$pff$3029                         pff
     00009C35  A$pff$3031                         pff
     00009C37  A$pff$3032                         pff
     00009C3A  A$pff$3038                         pff
ASxxxx Linker V03.00 + NoICE + sdld,  page 95.
Hexadecimal  [32-Bits]

Area                                    Addr        Size        Decimal Bytes (Attributes)
--------------------------------        ----        ----        ------- ----- ------------
CODE                                0000810D    00001FDA =        8154. bytes (REL,CON)

      Value  Global                              Global Defined In Module
      -----  --------------------------------   ------------------------
     00009C3A  C$pff.c$959$4_0$387                pff
     00009C3C  A$pff$3039                         pff
     00009C3E  A$pff$3040                         pff
     00009C40  A$pff$3041                         pff
     00009C42  A$pff$3042                         pff
     00009C43  A$pff$3048                         pff
     00009C43  C$pff.c$961$3_0$386                pff
     00009C45  A$pff$3049                         pff
     00009C47  A$pff$3050                         pff
     00009C4A  A$pff$3051                         pff
     00009C4B  A$pff$3053                         pff
     00009C4D  A$pff$3054                         pff
     00009C4E  A$pff$3056                         pff
     00009C51  A$pff$3057                         pff
     00009C53  A$pff$3059                         pff
     00009C55  A$pff$3060                         pff
     00009C57  A$pff$3064                         pff
     00009C57  C$pff.c$962$3_0$386                pff
     00009C58  A$pff$3065                         pff
     00009C5A  A$pff$3066                         pff
     00009C5C  A$pff$3067                         pff
     00009C5E  A$pff$3069                         pff
     00009C61  A$pff$3072                         pff
     00009C63  A$pff$3073                         pff
     00009C64  A$pff$3075                         pff
     00009C66  A$pff$3076                         pff
     00009C69  A$pff$3083                         pff
     00009C69  C$pff.c$963$3_0$386                pff
     00009C6B  A$pff$3084                         pff
     00009C6D  A$pff$3085                         pff
     00009C6E  A$pff$3087                         pff
     00009C70  A$pff$3088                         pff
     00009C73  A$pff$3089                         pff
     00009C74  A$pff$3090                         pff
     00009C76  A$pff$3091                         pff
     00009C78  A$pff$3092                         pff
     00009C79  A$pff$3093                         pff
     00009C7B  A$pff$3094                         pff
     00009C7D  A$pff$3096                         pff
     00009C7F  A$pff$3097                         pff
     00009C81  A$pff$3098                         pff
     00009C83  A$pff$3099                         pff
     00009C84  A$pff$3105                         pff
     00009C84  C$pff.c$950$1_0$384                pff
     00009C86  A$pff$3106                         pff
     00009C88  A$pff$3110                         pff
     00009C88  C$pff.c$965$1_0$384                pff
     00009C89  A$pff$3112                         pff
     00009C8B  A$pff$3113                         pff
     00009C8C  A$pff$3114                         pff
     00009C8E  A$pff$3115                         pff
ASxxxx Linker V03.00 + NoICE + sdld,  page 96.
Hexadecimal  [32-Bits]

Area                                    Addr        Size        Decimal Bytes (Attributes)
--------------------------------        ----        ----        ------- ----- ------------
CODE                                0000810D    00001FDA =        8154. bytes (REL,CON)

      Value  Global                              Global Defined In Module
      -----  --------------------------------   ------------------------
     00009C90  A$pff$3117                         pff
     00009C91  A$pff$3118                         pff
     00009C93  A$pff$3119                         pff
     00009C94  A$pff$3120                         pff
     00009C97  A$pff$3122                         pff
     00009C99  A$pff$3127                         pff
     00009C99  C$pff.c$966$2_0$385                pff
     00009C9B  A$pff$3128                         pff
     00009C9D  A$pff$3129                         pff
     00009C9F  A$pff$3130                         pff
     00009CA2  A$pff$3134                         pff
     00009CA4  A$pff$3135                         pff
     00009CA6  A$pff$3141                         pff
     00009CA6  C$pff.c$967$2_0$385                pff
     00009CA8  A$pff$3142                         pff
     00009CAA  A$pff$3143                         pff
     00009CAD  A$pff$3144                         pff
     00009CAE  A$pff$3145                         pff
     00009CB0  A$pff$3147                         pff
     00009CB2  A$pff$3148                         pff
     00009CB3  A$pff$3150                         pff
     00009CB5  A$pff$3151                         pff
     00009CB6  A$pff$3153                         pff
     00009CB8  A$pff$3154                         pff
     00009CBA  A$pff$3155                         pff
     00009CBB  A$pff$3157                         pff
     00009CBD  A$pff$3158                         pff
     00009CBE  A$pff$3160                         pff
     00009CC1  A$pff$3161                         pff
     00009CC3  A$pff$3165                         pff
     00009CC3  C$pff.c$968$2_0$385                pff
     00009CC4  A$pff$3166                         pff
     00009CC6  A$pff$3167                         pff
     00009CC9  A$pff$3170                         pff
     00009CCB  A$pff$3171                         pff
     00009CCC  A$pff$3173                         pff
     00009CCE  A$pff$3174                         pff
     00009CD1  A$pff$3180                         pff
     00009CD1  C$pff.c$969$2_0$385                pff
     00009CD3  A$pff$3181                         pff
     00009CD5  A$pff$3182                         pff
     00009CD8  A$pff$3183                         pff
     00009CDA  A$pff$3184                         pff
     00009CDB  A$pff$3185                         pff
     00009CDD  A$pff$3188                         pff
     00009CDF  A$pff$3189                         pff
     00009CE0  A$pff$3190                         pff
     00009CE1  A$pff$3192                         pff
     00009CE4  A$pff$3193                         pff
     00009CE6  A$pff$3194                         pff
     00009CE8  A$pff$3195                         pff
ASxxxx Linker V03.00 + NoICE + sdld,  page 97.
Hexadecimal  [32-Bits]

Area                                    Addr        Size        Decimal Bytes (Attributes)
--------------------------------        ----        ----        ------- ----- ------------
CODE                                0000810D    00001FDA =        8154. bytes (REL,CON)

      Value  Global                              Global Defined In Module
      -----  --------------------------------   ------------------------
     00009CE9  A$pff$3196                         pff
     00009CEB  A$pff$3197                         pff
     00009CED  A$pff$3199                         pff
     00009CEF  A$pff$3200                         pff
     00009CF1  A$pff$3201                         pff
     00009CF3  A$pff$3202                         pff
     00009CF4  A$pff$3206                         pff
     00009CF4  C$pff.c$970$2_0$385                pff
     00009CF6  A$pff$3207                         pff
     00009CF9  A$pff$3209                         pff
     00009CFB  A$pff$3211                         pff
     00009CFD  A$pff$3212                         pff
     00009CFE  A$pff$3214                         pff
     00009D01  A$pff$3216                         pff
     00009D03  A$pff$3217                         pff
     00009D05  A$pff$3221                         pff
     00009D05  C$pff.c$971$2_0$385                pff
     00009D07  A$pff$3222                         pff
     00009D09  A$pff$3223                         pff
     00009D0C  A$pff$3226                         pff
     00009D0E  A$pff$3227                         pff
     00009D11  A$pff$3229                         pff
     00009D13  A$pff$3231                         pff
     00009D16  A$pff$3237                         pff
     00009D16  C$pff.c$974$1_0$384                pff
     00009D17  A$pff$3243                         pff
     00009D19  A$pff$3246                         pff
     00009D19  C$pff.c$975$1_0$384                pff
     00009D19  XG$pf_read$0$0                     pff
     00009D1A  A$pff$3257                         pff
     00009D1A  C$pff.c$985$1_0$394                pff
     00009D1A  G$pf_write$0$0                     pff
     00009D1A  _pf_write                          pff
     00009D1C  A$pff$3262                         pff
     00009D1C  C$pff.c$993$2_0$394                pff
     00009D1E  A$pff$3264                         pff
     00009D20  A$pff$3268                         pff
     00009D20  C$pff.c$996$2_0$394                pff
     00009D23  A$pff$3269                         pff
     00009D25  A$pff$3273                         pff
     00009D25  C$pff.c$999$1_0$394                pff
     00009D27  A$pff$3274                         pff
     00009D29  A$pff$3276                         pff
     00009D2B  A$pff$3277                         pff
     00009D2D  A$pff$3278                         pff
     00009D2E  A$pff$3282                         pff
     00009D2E  C$pff.c$1000$1_0$394               pff
     00009D30  A$pff$3283                         pff
     00009D32  A$pff$3284                         pff
     00009D35  A$pff$3287                         pff
     00009D37  A$pff$3288                         pff
ASxxxx Linker V03.00 + NoICE + sdld,  page 98.
Hexadecimal  [32-Bits]

Area                                    Addr        Size        Decimal Bytes (Attributes)
--------------------------------        ----        ----        ------- ----- ------------
CODE                                0000810D    00001FDA =        8154. bytes (REL,CON)

      Value  Global                              Global Defined In Module
      -----  --------------------------------   ------------------------
     00009D3A  A$pff$3294                         pff
     00009D3A  C$pff.c$1001$1_0$394               pff
     00009D3C  A$pff$3295                         pff
     00009D3D  A$pff$3296                         pff
     00009D3F  A$pff$3298                         pff
     00009D41  A$pff$3299                         pff
     00009D42  A$pff$3301                         pff
     00009D44  A$pff$3302                         pff
     00009D46  A$pff$3303                         pff
     00009D49  A$pff$3307                         pff
     00009D4B  A$pff$3308                         pff
     00009D4E  A$pff$3314                         pff
     00009D4E  C$pff.c$1004$1_0$394               pff
     00009D50  A$pff$3315                         pff
     00009D52  A$pff$3316                         pff
     00009D54  A$pff$3320                         pff
     00009D54  C$pff.c$1003$1_0$394               pff
     00009D56  A$pff$3321                         pff
     00009D58  A$pff$3322                         pff
     00009D5B  A$pff$3327                         pff
     00009D5B  C$pff.c$1004$2_0$395               pff
     00009D5D  A$pff$3328                         pff
     00009D5F  A$pff$3329                         pff
     00009D62  A$pff$3332                         pff
     00009D63  A$pff$3333                         pff
     00009D64  A$pff$3334                         pff
     00009D65  A$pff$3335                         pff
     00009D66  A$pff$3337                         pff
     00009D67  A$pff$3338                         pff
     00009D68  A$pff$3340                         pff
     00009D6B  A$pff$3341                         pff
     00009D6D  A$pff$3343                         pff
     00009D6E  A$pff$3344                         pff
     00009D70  A$pff$3345                         pff
     00009D73  A$pff$3348                         pff
     00009D75  A$pff$3349                         pff
     00009D76  A$pff$3351                         pff
     00009D78  A$pff$3352                         pff
     00009D7B  A$pff$3358                         pff
     00009D7B  C$pff.c$1005$2_0$395               pff
     00009D7D  A$pff$3359                         pff
     00009D7E  A$pff$3361                         pff
     00009D80  A$pff$3363                         pff
     00009D82  A$pff$3364                         pff
     00009D83  A$pff$3368                         pff
     00009D83  C$pff.c$1006$2_0$395               pff
     00009D84  A$pff$3369                         pff
     00009D87  A$pff$3375                         pff
     00009D87  C$pff.c$1009$1_0$394               pff
     00009D89  A$pff$3376                         pff
     00009D8C  A$pff$3377                         pff
ASxxxx Linker V03.00 + NoICE + sdld,  page 99.
Hexadecimal  [32-Bits]

Area                                    Addr        Size        Decimal Bytes (Attributes)
--------------------------------        ----        ----        ------- ----- ------------
CODE                                0000810D    00001FDA =        8154. bytes (REL,CON)

      Value  Global                              Global Defined In Module
      -----  --------------------------------   ------------------------
     00009D8E  A$pff$3381                         pff
     00009D8E  C$pff.c$1008$2_0$397               pff
     00009D90  A$pff$3382                         pff
     00009D92  A$pff$3383                         pff
     00009D95  A$pff$3388                         pff
     00009D95  C$pff.c$1009$3_0$398               pff
     00009D97  A$pff$3389                         pff
     00009D99  A$pff$3390                         pff
     00009D9B  A$pff$3391                         pff
     00009D9D  A$pff$3392                         pff
     00009D9E  A$pff$3394                         pff
     00009DA0  A$pff$3395                         pff
     00009DA2  A$pff$3396                         pff
     00009DA3  A$pff$3397                         pff
     00009DA5  A$pff$3398                         pff
     00009DA6  A$pff$3399                         pff
     00009DA8  A$pff$3400                         pff
     00009DA9  A$pff$3401                         pff
     00009DAA  A$pff$3403                         pff
     00009DAC  A$pff$3404                         pff
     00009DAE  A$pff$3405                         pff
     00009DB0  A$pff$3406                         pff
     00009DB2  A$pff$3407                         pff
     00009DB3  A$pff$3413                         pff
     00009DB3  C$pff.c$1012$1_0$394               pff
     00009DB5  A$pff$3415                         pff
     00009DB7  A$pff$3416                         pff
     00009DBA  A$pff$3417                         pff
     00009DBC  A$pff$3418                         pff
     00009DBE  A$pff$3420                         pff
     00009DC0  A$pff$3421                         pff
     00009DC2  A$pff$3422                         pff
     00009DC4  A$pff$3423                         pff
     00009DC6  A$pff$3424                         pff
     00009DC8  A$pff$3425                         pff
     00009DC9  A$pff$3426                         pff
     00009DCB  A$pff$3428                         pff
     00009DCE  A$pff$3429                         pff
     00009DD0  A$pff$3430                         pff
     00009DD2  A$pff$3431                         pff
     00009DD3  A$pff$3432                         pff
     00009DD5  A$pff$3433                         pff
     00009DD7  A$pff$3435                         pff
     00009DD9  A$pff$3436                         pff
     00009DDA  A$pff$3441                         pff
     00009DDA  C$pff.c$1013$1_0$394               pff
     00009DDC  A$pff$3442                         pff
     00009DDE  A$pff$3443                         pff
     00009DE0  A$pff$3444                         pff
     00009DE2  A$pff$3447                         pff
     00009DE4  A$pff$3448                         pff
ASxxxx Linker V03.00 + NoICE + sdld,  page 100.
Hexadecimal  [32-Bits]

Area                                    Addr        Size        Decimal Bytes (Attributes)
--------------------------------        ----        ----        ------- ----- ------------
CODE                                0000810D    00001FDA =        8154. bytes (REL,CON)

      Value  Global                              Global Defined In Module
      -----  --------------------------------   ------------------------
     00009DE6  A$pff$3449                         pff
     00009DE8  A$pff$3450                         pff
     00009DEA  A$pff$3451                         pff
     00009DEB  A$pff$3452                         pff
     00009DED  A$pff$3453                         pff
     00009DEE  A$pff$3454                         pff
     00009DF0  A$pff$3455                         pff
     00009DF2  A$pff$3456                         pff
     00009DF5  A$pff$3461                         pff
     00009DF7  A$pff$3463                         pff
     00009DF9  A$pff$3469                         pff
     00009DF9  C$pff.c$1015$1_0$394               pff
     00009DFB  A$pff$3470                         pff
     00009DFD  A$pff$3472                         pff
     00009DFF  A$pff$3473                         pff
     00009E02  A$pff$3474                         pff
     00009E04  A$pff$3476                         pff
     00009E06  A$pff$3477                         pff
     00009E08  A$pff$3479                         pff
     00009E0A  A$pff$3480                         pff
     00009E0C  A$pff$3484                         pff
     00009E0E  A$pff$3485                         pff
     00009E10  A$pff$3486                         pff
     00009E13  A$pff$3491                         pff
     00009E13  C$pff.c$1016$1_0$394               pff
     00009E15  A$pff$3492                         pff
     00009E17  A$pff$3493                         pff
     00009E1A  A$pff$3494                         pff
     00009E1C  A$pff$3495                         pff
     00009E1D  A$pff$3496                         pff
     00009E1F  A$pff$3499                         pff
     00009E21  A$pff$3501                         pff
     00009E22  A$pff$3502                         pff
     00009E24  A$pff$3503                         pff
     00009E25  A$pff$3504                         pff
     00009E26  A$pff$3505                         pff
     00009E28  A$pff$3506                         pff
     00009E2A  A$pff$3508                         pff
     00009E2C  A$pff$3509                         pff
     00009E2E  A$pff$3510                         pff
     00009E31  A$pff$3515                         pff
     00009E31  C$pff.c$1017$3_0$400               pff
     00009E33  A$pff$3516                         pff
     00009E35  A$pff$3517                         pff
     00009E37  A$pff$3518                         pff
     00009E39  A$pff$3519                         pff
     00009E3B  A$pff$3520                         pff
     00009E3D  A$pff$3521                         pff
     00009E3F  A$pff$3522                         pff
     00009E41  A$pff$3524                         pff
     00009E43  A$pff$3525                         pff
ASxxxx Linker V03.00 + NoICE + sdld,  page 101.
Hexadecimal  [32-Bits]

Area                                    Addr        Size        Decimal Bytes (Attributes)
--------------------------------        ----        ----        ------- ----- ------------
CODE                                0000810D    00001FDA =        8154. bytes (REL,CON)

      Value  Global                              Global Defined In Module
      -----  --------------------------------   ------------------------
     00009E45  A$pff$3526                         pff
     00009E47  A$pff$3530                         pff
     00009E49  A$pff$3533                         pff
     00009E4B  A$pff$3534                         pff
     00009E4D  A$pff$3537                         pff
     00009E4F  A$pff$3538                         pff
     00009E51  A$pff$3540                         pff
     00009E53  A$pff$3541                         pff
     00009E55  A$pff$3543                         pff
     00009E57  A$pff$3547                         pff
     00009E57  C$pff.c$1018$3_0$400               pff
     00009E58  A$pff$3548                         pff
     00009E5A  A$pff$3549                         pff
     00009E5D  A$pff$3554                         pff
     00009E5D  C$pff.c$1019$4_0$401               pff
     00009E5F  A$pff$3555                         pff
     00009E61  A$pff$3556                         pff
     00009E63  A$pff$3557                         pff
     00009E65  A$pff$3559                         pff
     00009E68  A$pff$3564                         pff
     00009E68  C$pff.c$1020$5_0$402               pff
     00009E6A  A$pff$3565                         pff
     00009E6C  A$pff$3566                         pff
     00009E6F  A$pff$3567                         pff
     00009E71  A$pff$3569                         pff
     00009E73  A$pff$3570                         pff
     00009E75  A$pff$3572                         pff
     00009E78  A$pff$3578                         pff
     00009E78  C$pff.c$1022$5_0$403               pff
     00009E7A  A$pff$3579                         pff
     00009E7C  A$pff$3580                         pff
     00009E7F  A$pff$3581                         pff
     00009E80  A$pff$3583                         pff
     00009E82  A$pff$3584                         pff
     00009E83  A$pff$3586                         pff
     00009E86  A$pff$3587                         pff
     00009E88  A$pff$3588                         pff
     00009E8A  A$pff$3590                         pff
     00009E8C  A$pff$3597                         pff
     00009E8C  C$pff.c$1024$4_0$401               pff
     00009E8D  A$pff$3598                         pff
     00009E8E  A$pff$3599                         pff
     00009E90  A$pff$3600                         pff
     00009E91  A$pff$3601                         pff
     00009E93  A$pff$3602                         pff
     00009E94  A$pff$3603                         pff
     00009E96  A$pff$3604                         pff
     00009E98  A$pff$3605                         pff
     00009E9B  A$pff$3609                         pff
     00009E9D  A$pff$3610                         pff
     00009E9E  A$pff$3612                         pff
ASxxxx Linker V03.00 + NoICE + sdld,  page 102.
Hexadecimal  [32-Bits]

Area                                    Addr        Size        Decimal Bytes (Attributes)
--------------------------------        ----        ----        ------- ----- ------------
CODE                                0000810D    00001FDA =        8154. bytes (REL,CON)

      Value  Global                              Global Defined In Module
      -----  --------------------------------   ------------------------
     00009EA0  A$pff$3613                         pff
     00009EA3  A$pff$3619                         pff
     00009EA3  C$pff.c$1025$4_0$401               pff
     00009EA5  A$pff$3620                         pff
     00009EA7  A$pff$3621                         pff
     00009EA9  A$pff$3622                         pff
     00009EAB  A$pff$3623                         pff
     00009EAC  A$pff$3629                         pff
     00009EAC  C$pff.c$1027$3_0$400               pff
     00009EAE  A$pff$3630                         pff
     00009EB0  A$pff$3631                         pff
     00009EB3  A$pff$3632                         pff
     00009EB4  A$pff$3634                         pff
     00009EB6  A$pff$3635                         pff
     00009EB7  A$pff$3637                         pff
     00009EBA  A$pff$3638                         pff
     00009EBC  A$pff$3640                         pff
     00009EBE  A$pff$3641                         pff
     00009EC0  A$pff$3645                         pff
     00009EC0  C$pff.c$1028$3_0$400               pff
     00009EC1  A$pff$3646                         pff
     00009EC3  A$pff$3647                         pff
     00009EC5  A$pff$3648                         pff
     00009EC7  A$pff$3650                         pff
     00009ECA  A$pff$3653                         pff
     00009ECC  A$pff$3654                         pff
     00009ECD  A$pff$3656                         pff
     00009ECF  A$pff$3657                         pff
     00009ED2  A$pff$3663                         pff
     00009ED2  C$pff.c$1029$3_0$400               pff
     00009ED4  A$pff$3664                         pff
     00009ED7  A$pff$3667                         pff
     00009ED9  A$pff$3668                         pff
     00009EDB  A$pff$3669                         pff
     00009EDD  A$pff$3670                         pff
     00009EDE  A$pff$3671                         pff
     00009EE0  A$pff$3673                         pff
     00009EE3  A$pff$3674                         pff
     00009EE5  A$pff$3675                         pff
     00009EE7  A$pff$3676                         pff
     00009EE9  A$pff$3677                         pff
     00009EEB  A$pff$3678                         pff
     00009EED  A$pff$3680                         pff
     00009EEF  A$pff$3681                         pff
     00009EF1  A$pff$3682                         pff
     00009EF3  A$pff$3683                         pff
     00009EF5  A$pff$3684                         pff
     00009EF6  A$pff$3688                         pff
     00009EF6  C$pff.c$1030$3_0$400               pff
     00009EF8  A$pff$3689                         pff
     00009EFA  A$pff$3690                         pff
ASxxxx Linker V03.00 + NoICE + sdld,  page 103.
Hexadecimal  [32-Bits]

Area                                    Addr        Size        Decimal Bytes (Attributes)
--------------------------------        ----        ----        ------- ----- ------------
CODE                                0000810D    00001FDA =        8154. bytes (REL,CON)

      Value  Global                              Global Defined In Module
      -----  --------------------------------   ------------------------
     00009EFB  A$pff$3692                         pff
     00009EFC  A$pff$3693                         pff
     00009EFD  A$pff$3695                         pff
     00009F00  A$pff$3696                         pff
     00009F02  A$pff$3698                         pff
     00009F03  A$pff$3699                         pff
     00009F05  A$pff$3700                         pff
     00009F08  A$pff$3703                         pff
     00009F0A  A$pff$3704                         pff
     00009F0B  A$pff$3706                         pff
     00009F0D  A$pff$3707                         pff
     00009F10  A$pff$3713                         pff
     00009F10  C$pff.c$1031$3_0$400               pff
     00009F12  A$pff$3714                         pff
     00009F13  A$pff$3716                         pff
     00009F15  A$pff$3718                         pff
     00009F17  A$pff$3719                         pff
     00009F18  A$pff$3725                         pff
     00009F18  C$pff.c$1033$2_0$399               pff
     00009F1A  A$pff$3726                         pff
     00009F1C  A$pff$3728                         pff
     00009F1D  A$pff$3730                         pff
     00009F1F  A$pff$3731                         pff
     00009F21  A$pff$3733                         pff
     00009F22  A$pff$3734                         pff
     00009F23  A$pff$3735                         pff
     00009F24  A$pff$3736                         pff
     00009F26  A$pff$3737                         pff
     00009F28  A$pff$3738                         pff
     00009F29  A$pff$3740                         pff
     00009F2B  A$pff$3745                         pff
     00009F2B  C$pff.c$1034$2_0$399               pff
     00009F2D  A$pff$3746                         pff
     00009F2F  A$pff$3747                         pff
     00009F31  A$pff$3748                         pff
     00009F34  A$pff$3752                         pff
     00009F36  A$pff$3753                         pff
     00009F38  A$pff$3760                         pff
     00009F38  C$pff.c$1035$1_0$394               pff
     00009F3A  A$pff$3761                         pff
     00009F3C  A$pff$3762                         pff
     00009F3E  A$pff$3763                         pff
     00009F40  A$pff$3765                         pff
     00009F42  A$pff$3766                         pff
     00009F43  A$pff$3767                         pff
     00009F45  A$pff$3768                         pff
     00009F46  A$pff$3770                         pff
     00009F48  A$pff$3771                         pff
     00009F49  A$pff$3773                         pff
     00009F4C  A$pff$3774                         pff
     00009F4E  A$pff$3776                         pff
ASxxxx Linker V03.00 + NoICE + sdld,  page 104.
Hexadecimal  [32-Bits]

Area                                    Addr        Size        Decimal Bytes (Attributes)
--------------------------------        ----        ----        ------- ----- ------------
CODE                                0000810D    00001FDA =        8154. bytes (REL,CON)

      Value  Global                              Global Defined In Module
      -----  --------------------------------   ------------------------
     00009F4F  A$pff$3777                         pff
     00009F51  A$pff$3778                         pff
     00009F54  A$pff$3781                         pff
     00009F56  A$pff$3782                         pff
     00009F57  A$pff$3784                         pff
     00009F59  A$pff$3785                         pff
     00009F5C  A$pff$3791                         pff
     00009F5C  C$pff.c$1036$2_0$399               pff
     00009F5E  A$pff$3792                         pff
     00009F60  A$pff$3793                         pff
     00009F61  A$pff$3794                         pff
     00009F63  A$pff$3795                         pff
     00009F65  A$pff$3796                         pff
     00009F66  A$pff$3797                         pff
     00009F67  A$pff$3799                         pff
     00009F69  A$pff$3800                         pff
     00009F6B  A$pff$3801                         pff
     00009F6D  A$pff$3802                         pff
     00009F6F  A$pff$3803                         pff
     00009F71  A$pff$3804                         pff
     00009F72  A$pff$3805                         pff
     00009F74  A$pff$3806                         pff
     00009F76  A$pff$3807                         pff
     00009F77  A$pff$3808                         pff
     00009F79  A$pff$3809                         pff
     00009F7B  A$pff$3811                         pff
     00009F7D  A$pff$3812                         pff
     00009F7F  A$pff$3813                         pff
     00009F81  A$pff$3814                         pff
     00009F83  A$pff$3815                         pff
     00009F84  A$pff$3817                         pff
     00009F86  A$pff$3818                         pff
     00009F89  A$pff$3820                         pff
     00009F8B  A$pff$3824                         pff
     00009F8B  C$pff.c$1037$2_0$399               pff
     00009F8D  A$pff$3825                         pff
     00009F90  A$pff$3827                         pff
     00009F92  A$pff$3829                         pff
     00009F94  A$pff$3830                         pff
     00009F95  A$pff$3832                         pff
     00009F98  A$pff$3833                         pff
     00009F9A  A$pff$3835                         pff
     00009F9C  A$pff$3836                         pff
     00009F9E  A$pff$3837                         pff
     00009F9F  A$pff$3842                         pff
     00009F9F  C$pff.c$1038$2_0$399               pff
     00009FA1  A$pff$3843                         pff
     00009FA3  A$pff$3845                         pff
     00009FA5  A$pff$3846                         pff
     00009FA7  A$pff$3847                         pff
     00009FA9  A$pff$3848                         pff
ASxxxx Linker V03.00 + NoICE + sdld,  page 105.
Hexadecimal  [32-Bits]

Area                                    Addr        Size        Decimal Bytes (Attributes)
--------------------------------        ----        ----        ------- ----- ------------
CODE                                0000810D    00001FDA =        8154. bytes (REL,CON)

      Value  Global                              Global Defined In Module
      -----  --------------------------------   ------------------------
     00009FAB  A$pff$3849                         pff
     00009FAD  A$pff$3851                         pff
     00009FAF  A$pff$3852                         pff
     00009FB1  A$pff$3853                         pff
     00009FB4  A$pff$3858                         pff
     00009FB4  C$pff.c$1039$3_0$408               pff
     00009FB5  A$pff$3859                         pff
     00009FB6  A$pff$3860                         pff
     00009FB7  A$pff$3861                         pff
     00009FB8  A$pff$3863                         pff
     00009FB9  A$pff$3864                         pff
     00009FBA  A$pff$3866                         pff
     00009FBD  A$pff$3867                         pff
     00009FBF  A$pff$3869                         pff
     00009FC0  A$pff$3870                         pff
     00009FC2  A$pff$3871                         pff
     00009FC5  A$pff$3874                         pff
     00009FC7  A$pff$3875                         pff
     00009FC8  A$pff$3877                         pff
     00009FCA  A$pff$3878                         pff
     00009FCD  A$pff$3884                         pff
     00009FCD  C$pff.c$1040$3_0$408               pff
     00009FCF  A$pff$3885                         pff
     00009FD0  A$pff$3887                         pff
     00009FD2  A$pff$3889                         pff
     00009FD4  A$pff$3890                         pff
     00009FD5  A$pff$3892                         pff
     00009FD8  A$pff$3898                         pff
     00009FD8  C$pff.c$1044$1_0$394               pff
     00009FD9  A$pff$3904                         pff
     00009FDB  A$pff$3907                         pff
     00009FDB  C$pff.c$1045$1_0$394               pff
     00009FDB  XG$pf_write$0$0                    pff
     00009FDC  A$stm8s_it$87                      stm8s_it
     00009FDC  C$stm8s_it.c$62$0_0$313            stm8s_it
     00009FDC  C$stm8s_it.c$67$0_0$313            stm8s_it
     00009FDC  G$TRAP_IRQHandler$0$0              stm8s_it
     00009FDC  XG$TRAP_IRQHandler$0$0             stm8s_it
     00009FDC  _TRAP_IRQHandler                   stm8s_it
     00009FDD  A$stm8s_it$105                     stm8s_it
     00009FDD  C$stm8s_it.c$73$0_0$315            stm8s_it
     00009FDD  C$stm8s_it.c$78$0_0$315            stm8s_it
     00009FDD  G$TLI_IRQHandler$0$0               stm8s_it
     00009FDD  XG$TLI_IRQHandler$0$0              stm8s_it
     00009FDD  _TLI_IRQHandler                    stm8s_it
     00009FDE  A$stm8s_it$123                     stm8s_it
     00009FDE  C$stm8s_it.c$85$0_0$317            stm8s_it
     00009FDE  C$stm8s_it.c$90$0_0$317            stm8s_it
     00009FDE  G$AWU_IRQHandler$0$0               stm8s_it
     00009FDE  XG$AWU_IRQHandler$0$0              stm8s_it
     00009FDE  _AWU_IRQHandler                    stm8s_it
ASxxxx Linker V03.00 + NoICE + sdld,  page 106.
Hexadecimal  [32-Bits]

Area                                    Addr        Size        Decimal Bytes (Attributes)
--------------------------------        ----        ----        ------- ----- ------------
CODE                                0000810D    00001FDA =        8154. bytes (REL,CON)

      Value  Global                              Global Defined In Module
      -----  --------------------------------   ------------------------
     00009FDF  A$stm8s_it$141                     stm8s_it
     00009FDF  C$stm8s_it.c$102$0_0$319           stm8s_it
     00009FDF  C$stm8s_it.c$97$0_0$319            stm8s_it
     00009FDF  G$CLK_IRQHandler$0$0               stm8s_it
     00009FDF  XG$CLK_IRQHandler$0$0              stm8s_it
     00009FDF  _CLK_IRQHandler                    stm8s_it
     00009FE0  A$stm8s_it$159                     stm8s_it
     00009FE0  C$stm8s_it.c$109$0_0$321           stm8s_it
     00009FE0  C$stm8s_it.c$114$0_0$321           stm8s_it
     00009FE0  G$EXTI_PORTA_IRQHandler$0$0        stm8s_it
     00009FE0  XG$EXTI_PORTA_IRQHandler$0$0       stm8s_it
     00009FE0  _EXTI_PORTA_IRQHandler             stm8s_it
     00009FE1  A$stm8s_it$177                     stm8s_it
     00009FE1  C$stm8s_it.c$121$0_0$323           stm8s_it
     00009FE1  C$stm8s_it.c$126$0_0$323           stm8s_it
     00009FE1  G$EXTI_PORTB_IRQHandler$0$0        stm8s_it
     00009FE1  XG$EXTI_PORTB_IRQHandler$0$0       stm8s_it
     00009FE1  _EXTI_PORTB_IRQHandler             stm8s_it
     00009FE2  A$stm8s_it$195                     stm8s_it
     00009FE2  C$stm8s_it.c$133$0_0$325           stm8s_it
     00009FE2  C$stm8s_it.c$138$0_0$325           stm8s_it
     00009FE2  G$EXTI_PORTC_IRQHandler$0$0        stm8s_it
     00009FE2  XG$EXTI_PORTC_IRQHandler$0$0       stm8s_it
     00009FE2  _EXTI_PORTC_IRQHandler             stm8s_it
     00009FE3  A$stm8s_it$213                     stm8s_it
     00009FE3  C$stm8s_it.c$145$0_0$327           stm8s_it
     00009FE3  C$stm8s_it.c$150$0_0$327           stm8s_it
     00009FE3  G$EXTI_PORTD_IRQHandler$0$0        stm8s_it
     00009FE3  XG$EXTI_PORTD_IRQHandler$0$0       stm8s_it
     00009FE3  _EXTI_PORTD_IRQHandler             stm8s_it
     00009FE4  A$stm8s_it$231                     stm8s_it
     00009FE4  C$stm8s_it.c$157$0_0$329           stm8s_it
     00009FE4  C$stm8s_it.c$162$0_0$329           stm8s_it
     00009FE4  G$EXTI_PORTE_IRQHandler$0$0        stm8s_it
     00009FE4  XG$EXTI_PORTE_IRQHandler$0$0       stm8s_it
     00009FE4  _EXTI_PORTE_IRQHandler             stm8s_it
     00009FE5  A$stm8s_it$249                     stm8s_it
     00009FE5  C$stm8s_it.c$208$0_0$331           stm8s_it
     00009FE5  C$stm8s_it.c$213$0_0$331           stm8s_it
     00009FE5  G$SPI_IRQHandler$0$0               stm8s_it
     00009FE5  XG$SPI_IRQHandler$0$0              stm8s_it
     00009FE5  _SPI_IRQHandler                    stm8s_it
     00009FE6  A$stm8s_it$267                     stm8s_it
     00009FE6  C$stm8s_it.c$220$0_0$333           stm8s_it
     00009FE6  C$stm8s_it.c$225$0_0$333           stm8s_it
     00009FE6  G$TIM1_UPD_OVF_TRG_BRK_IRQHandle   stm8s_it
     00009FE6  XG$TIM1_UPD_OVF_TRG_BRK_IRQHandl   stm8s_it
     00009FE6  _TIM1_UPD_OVF_TRG_BRK_IRQHandler   stm8s_it
     00009FE7  A$stm8s_it$285                     stm8s_it
     00009FE7  C$stm8s_it.c$232$0_0$335           stm8s_it
     00009FE7  C$stm8s_it.c$237$0_0$335           stm8s_it
ASxxxx Linker V03.00 + NoICE + sdld,  page 107.
Hexadecimal  [32-Bits]

Area                                    Addr        Size        Decimal Bytes (Attributes)
--------------------------------        ----        ----        ------- ----- ------------
CODE                                0000810D    00001FDA =        8154. bytes (REL,CON)

      Value  Global                              Global Defined In Module
      -----  --------------------------------   ------------------------
     00009FE7  G$TIM1_CAP_COM_IRQHandler$0$0      stm8s_it
     00009FE7  XG$TIM1_CAP_COM_IRQHandler$0$0     stm8s_it
     00009FE7  _TIM1_CAP_COM_IRQHandler           stm8s_it
     00009FE8  A$stm8s_it$303                     stm8s_it
     00009FE8  C$stm8s_it.c$269$0_0$337           stm8s_it
     00009FE8  C$stm8s_it.c$274$0_0$337           stm8s_it
     00009FE8  G$TIM2_UPD_OVF_BRK_IRQHandler$0$   stm8s_it
     00009FE8  XG$TIM2_UPD_OVF_BRK_IRQHandler$0   stm8s_it
     00009FE8  _TIM2_UPD_OVF_BRK_IRQHandler       stm8s_it
     00009FE9  A$stm8s_it$321                     stm8s_it
     00009FE9  C$stm8s_it.c$281$0_0$339           stm8s_it
     00009FE9  C$stm8s_it.c$286$0_0$339           stm8s_it
     00009FE9  G$TIM2_CAP_COM_IRQHandler$0$0      stm8s_it
     00009FE9  XG$TIM2_CAP_COM_IRQHandler$0$0     stm8s_it
     00009FE9  _TIM2_CAP_COM_IRQHandler           stm8s_it
     00009FEA  A$stm8s_it$339                     stm8s_it
     00009FEA  C$stm8s_it.c$323$0_0$341           stm8s_it
     00009FEA  C$stm8s_it.c$328$0_0$341           stm8s_it
     00009FEA  G$UART1_TX_IRQHandler$0$0          stm8s_it
     00009FEA  XG$UART1_TX_IRQHandler$0$0         stm8s_it
     00009FEA  _UART1_TX_IRQHandler               stm8s_it
     00009FEB  A$stm8s_it$357                     stm8s_it
     00009FEB  C$stm8s_it.c$335$0_0$343           stm8s_it
     00009FEB  C$stm8s_it.c$340$0_0$343           stm8s_it
     00009FEB  G$UART1_RX_IRQHandler$0$0          stm8s_it
     00009FEB  XG$UART1_RX_IRQHandler$0$0         stm8s_it
     00009FEB  _UART1_RX_IRQHandler               stm8s_it
     00009FEC  A$stm8s_it$375                     stm8s_it
     00009FEC  C$stm8s_it.c$348$0_0$345           stm8s_it
     00009FEC  C$stm8s_it.c$353$0_0$345           stm8s_it
     00009FEC  G$I2C_IRQHandler$0$0               stm8s_it
     00009FEC  XG$I2C_IRQHandler$0$0              stm8s_it
     00009FEC  _I2C_IRQHandler                    stm8s_it
     00009FED  A$stm8s_it$387                     stm8s_it
     00009FED  C$stm8s_it.c$428$0_0$346           stm8s_it
     00009FED  G$ADC1_IRQHandler$0$0              stm8s_it
     00009FED  _ADC1_IRQHandler                   stm8s_it
     00009FEE  A$stm8s_it$391                     stm8s_it
     00009FEE  C$stm8s_it.c$430$1_0$346           stm8s_it
     00009FF1  A$stm8s_it$402                     stm8s_it
     00009FF1  C$stm8s_it.c$434$1_0$346           stm8s_it
     00009FF1  C$stm8s_it.c$436$1_0$346           stm8s_it
     00009FF1  XG$ADC1_IRQHandler$0$0             stm8s_it
     00009FF2  A$stm8s_it$414                     stm8s_it
     00009FF2  C$stm8s_it.c$457$1_0$347           stm8s_it
     00009FF2  G$TIM4_UPD_OVF_IRQHandler$0$0      stm8s_it
     00009FF2  _TIM4_UPD_OVF_IRQHandler           stm8s_it
     00009FF3  A$stm8s_it$418                     stm8s_it
     00009FF3  C$stm8s_it.c$462$1_0$347           stm8s_it
     00009FF6  A$stm8s_it$426                     stm8s_it
     00009FF6  C$stm8s_it.c$463$1_0$347           stm8s_it
ASxxxx Linker V03.00 + NoICE + sdld,  page 108.
Hexadecimal  [32-Bits]

Area                                    Addr        Size        Decimal Bytes (Attributes)
--------------------------------        ----        ----        ------- ----- ------------
CODE                                0000810D    00001FDA =        8154. bytes (REL,CON)

      Value  Global                              Global Defined In Module
      -----  --------------------------------   ------------------------
     00009FF6  XG$TIM4_UPD_OVF_IRQHandler$0$0     stm8s_it
     00009FF7  A$stm8s_it$444                     stm8s_it
     00009FF7  C$stm8s_it.c$471$1_0$349           stm8s_it
     00009FF7  C$stm8s_it.c$476$1_0$349           stm8s_it
     00009FF7  G$EEPROM_EEC_IRQHandler$0$0        stm8s_it
     00009FF7  XG$EEPROM_EEC_IRQHandler$0$0       stm8s_it
     00009FF7  _EEPROM_EEC_IRQHandler             stm8s_it
     00009FF8  __mulint                           
     0000A011  __divulong                         
     0000A06B  __mullong                          
ASxxxx Linker V03.00 + NoICE + sdld,  page 109.

Files Linked                              [ module(s) ]

STM8S003/main.rel                         [ main ]
STM8S003/button.rel                       [ button ]
STM8S003/diskio.rel                       [ diskio ]
STM8S003/dly.rel                          [ dly ]
STM8S003/led_matrix.rel                   [ led_matrix ]
STM8S003/leds.rel                         [ leds ]
STM8S003/adc.rel                          [ adc ]
STM8S003/mmcsd.rel                        [ mmcsd ]
STM8S003/pff.rel                          [ pff ]
STM8S003/stm8s_it.rel                     [ stm8s_it ]


Libraries Linked                          [ object file ]

/usr/share/sdcc/lib/stm8/stm8.lib         [ _mulint.rel ]
/usr/share/sdcc/lib/stm8/stm8.lib         [ _divulong.rel ]
/usr/share/sdcc/lib/stm8/stm8.lib         [ _mullong.rel ]

ASxxxx Linker V03.00 + NoICE + sdld,  page 110.

User Base Address Definitions

HOME = 0x8000
DATA = 0x0001

